	.file	"unit.cpp"
	.intel_syntax noprefix
# GNU C++14 (Debian 6.3.0-18) version 6.3.0 20170516 (x86_64-linux-gnu)
#	compiled by GNU C version 6.3.0 20170516, GMP version 6.1.2, MPFR version 3.1.5, MPC version 1.0.3, isl version 0.15
# GGC heuristics: --param ggc-min-expand=100 --param ggc-min-heapsize=131072
# options passed:  -imultiarch x86_64-linux-gnu -D_GNU_SOURCE
# -isystem /opt/gtest/googletest/include unit.cpp -masm=intel
# -mtune=generic -march=x86-64 -auxbase-strip binary_search.asm -g
# -fverbose-asm
# options enabled:  -fPIC -fPIE -faggressive-loop-optimizations
# -fasynchronous-unwind-tables -fauto-inc-dec -fchkp-check-incomplete-type
# -fchkp-check-read -fchkp-check-write -fchkp-instrument-calls
# -fchkp-narrow-bounds -fchkp-optimize -fchkp-store-bounds
# -fchkp-use-static-bounds -fchkp-use-static-const-bounds
# -fchkp-use-wrappers -fcommon -fdelete-null-pointer-checks
# -fdwarf2-cfi-asm -fearly-inlining -feliminate-unused-debug-types
# -fexceptions -ffunction-cse -fgcse-lm -fgnu-runtime -fgnu-unique -fident
# -finline-atomics -fira-hoist-pressure -fira-share-save-slots
# -fira-share-spill-slots -fivopts -fkeep-static-consts
# -fleading-underscore -flifetime-dse -flto-odr-type-merging -fmath-errno
# -fmerge-debug-strings -fpeephole -fplt -fprefetch-loop-arrays
# -freg-struct-return -fsched-critical-path-heuristic
# -fsched-dep-count-heuristic -fsched-group-heuristic -fsched-interblock
# -fsched-last-insn-heuristic -fsched-rank-heuristic -fsched-spec
# -fsched-spec-insn-heuristic -fsched-stalled-insns-dep -fschedule-fusion
# -fsemantic-interposition -fshow-column -fsigned-zeros
# -fsplit-ivs-in-unroller -fssa-backprop -fstdarg-opt
# -fstrict-volatile-bitfields -fsync-libcalls -ftrapping-math -ftree-cselim
# -ftree-forwprop -ftree-loop-if-convert -ftree-loop-im -ftree-loop-ivcanon
# -ftree-loop-optimize -ftree-parallelize-loops= -ftree-phiprop
# -ftree-reassoc -ftree-scev-cprop -funit-at-a-time -funwind-tables
# -fverbose-asm -fzero-initialized-in-bss -m128bit-long-double -m64 -m80387
# -malign-stringops -mavx256-split-unaligned-load
# -mavx256-split-unaligned-store -mfancy-math-387 -mfp-ret-in-387 -mfxsr
# -mglibc -mieee-fp -mlong-double-80 -mmmx -mno-sse4 -mpush-args -mred-zone
# -msse -msse2 -mstv -mtls-direct-seg-refs -mvzeroupper

	.text
.Ltext0:
	.section	.rodata
	.type	_ZStL19piecewise_construct, @object
	.size	_ZStL19piecewise_construct, 1
_ZStL19piecewise_construct:
	.zero	1
.LC0:
	.string	""
	.section	.text._ZN19SearchValueNotFoundC2Ev,"axG",@progbits,_ZN19SearchValueNotFoundC5Ev,comdat
	.align 2
	.weak	_ZN19SearchValueNotFoundC2Ev
	.type	_ZN19SearchValueNotFoundC2Ev, @function
_ZN19SearchValueNotFoundC2Ev:
.LFB949:
	.file 1 "binary_search.hpp"
	.loc 1 9 0
	.cfi_startproc
	.cfi_personality 0x9b,DW.ref.__gxx_personality_v0
	.cfi_lsda 0x1b,.LLSDA949
	push	rbp	#
	.cfi_def_cfa_offset 16
	.cfi_offset 6, -16
	mov	rbp, rsp	#,
	.cfi_def_cfa_register 6
	push	rbx	#
	sub	rsp, 72	#,
	.cfi_offset 3, -24
	mov	QWORD PTR -72[rbp], rdi	# this, this
.LBB2:
	.loc 1 9 0
	lea	rax, -17[rbp]	# tmp88,
	mov	rdi, rax	#, tmp88
	call	_ZNSaIcEC1Ev@PLT	#
	lea	rdx, -17[rbp]	# tmp89,
	lea	rax, -64[rbp]	# tmp90,
	lea	rsi, .LC0[rip]	#,
	mov	rdi, rax	#, tmp90
.LEHB0:
	call	_ZNSt7__cxx1112basic_stringIcSt11char_traitsIcESaIcEEC1EPKcRKS3_@PLT	#
.LEHE0:
	.loc 1 9 0 is_stmt 0 discriminator 2
	lea	rdx, -64[rbp]	# tmp91,
	mov	rax, QWORD PTR -72[rbp]	# tmp92, this
	mov	rsi, rdx	#, tmp91
	mov	rdi, rax	#, tmp92
.LEHB1:
	call	_ZN19SearchValueNotFoundC1ERKNSt7__cxx1112basic_stringIcSt11char_traitsIcESaIcEEE	#
.LEHE1:
	.loc 1 9 0 discriminator 4
	lea	rax, -64[rbp]	# tmp93,
	mov	rdi, rax	#, tmp93
	call	_ZNSt7__cxx1112basic_stringIcSt11char_traitsIcESaIcEED1Ev@PLT	#
	lea	rax, -17[rbp]	# tmp94,
	mov	rdi, rax	#, tmp94
	call	_ZNSaIcED1Ev@PLT	#
.LBE2:
	jmp	.L6	#
.L5:
	mov	rbx, rax	# tmp97,
.LBB3:
	.loc 1 9 0
	lea	rax, -64[rbp]	# tmp95,
	mov	rdi, rax	#, tmp95
	call	_ZNSt7__cxx1112basic_stringIcSt11char_traitsIcESaIcEED1Ev@PLT	#
	jmp	.L3	#
.L4:
	mov	rbx, rax	# tmp96,
.L3:
	.loc 1 9 0 discriminator 1
	lea	rax, -17[rbp]	# tmp100,
	mov	rdi, rax	#, tmp100
	call	_ZNSaIcED1Ev@PLT	#
	mov	rax, rbx	# D.115951, tmp96
	mov	rdi, rax	#, D.115951
.LEHB2:
	call	_Unwind_Resume@PLT	#
.LEHE2:
.L6:
.LBE3:
	.loc 1 9 0
	add	rsp, 72	#,
	pop	rbx	#
	pop	rbp	#
	.cfi_def_cfa 7, 8
	ret
	.cfi_endproc
.LFE949:
	.globl	__gxx_personality_v0
	.section	.gcc_except_table._ZN19SearchValueNotFoundC2Ev,"aG",@progbits,_ZN19SearchValueNotFoundC5Ev,comdat
.LLSDA949:
	.byte	0xff
	.byte	0xff
	.byte	0x1
	.uleb128 .LLSDACSE949-.LLSDACSB949
.LLSDACSB949:
	.uleb128 .LEHB0-.LFB949
	.uleb128 .LEHE0-.LEHB0
	.uleb128 .L4-.LFB949
	.uleb128 0
	.uleb128 .LEHB1-.LFB949
	.uleb128 .LEHE1-.LEHB1
	.uleb128 .L5-.LFB949
	.uleb128 0
	.uleb128 .LEHB2-.LFB949
	.uleb128 .LEHE2-.LEHB2
	.uleb128 0
	.uleb128 0
.LLSDACSE949:
	.section	.text._ZN19SearchValueNotFoundC2Ev,"axG",@progbits,_ZN19SearchValueNotFoundC5Ev,comdat
	.size	_ZN19SearchValueNotFoundC2Ev, .-_ZN19SearchValueNotFoundC2Ev
	.weak	_ZN19SearchValueNotFoundC1Ev
	.set	_ZN19SearchValueNotFoundC1Ev,_ZN19SearchValueNotFoundC2Ev
	.section	.text._ZN19SearchValueNotFoundC2ERKNSt7__cxx1112basic_stringIcSt11char_traitsIcESaIcEEE,"axG",@progbits,_ZN19SearchValueNotFoundC5ERKNSt7__cxx1112basic_stringIcSt11char_traitsIcESaIcEEE,comdat
	.align 2
	.weak	_ZN19SearchValueNotFoundC2ERKNSt7__cxx1112basic_stringIcSt11char_traitsIcESaIcEEE
	.type	_ZN19SearchValueNotFoundC2ERKNSt7__cxx1112basic_stringIcSt11char_traitsIcESaIcEEE, @function
_ZN19SearchValueNotFoundC2ERKNSt7__cxx1112basic_stringIcSt11char_traitsIcESaIcEEE:
.LFB952:
	.loc 1 11 0 is_stmt 1
	.cfi_startproc
	push	rbp	#
	.cfi_def_cfa_offset 16
	.cfi_offset 6, -16
	mov	rbp, rsp	#,
	.cfi_def_cfa_register 6
	sub	rsp, 16	#,
	mov	QWORD PTR -8[rbp], rdi	# this, this
	mov	QWORD PTR -16[rbp], rsi	# error_message, error_message
.LBB4:
	.loc 1 12 0
	mov	rax, QWORD PTR -8[rbp]	# _4, this
	mov	rdx, QWORD PTR -16[rbp]	# tmp89, error_message
	mov	rsi, rdx	#, tmp89
	mov	rdi, rax	#, _4
	call	_ZNSt13runtime_errorC2ERKNSt7__cxx1112basic_stringIcSt11char_traitsIcESaIcEEE@PLT	#
	lea	rdx, _ZTV19SearchValueNotFound[rip+16]	# _7,
	mov	rax, QWORD PTR -8[rbp]	# tmp90, this
	mov	QWORD PTR [rax], rdx	# this_2(D)->D.23956.D.23804._vptr.exception, _7
.LBE4:
	nop
	leave
	.cfi_def_cfa 7, 8
	ret
	.cfi_endproc
.LFE952:
	.size	_ZN19SearchValueNotFoundC2ERKNSt7__cxx1112basic_stringIcSt11char_traitsIcESaIcEEE, .-_ZN19SearchValueNotFoundC2ERKNSt7__cxx1112basic_stringIcSt11char_traitsIcESaIcEEE
	.weak	_ZN19SearchValueNotFoundC1ERKNSt7__cxx1112basic_stringIcSt11char_traitsIcESaIcEEE
	.set	_ZN19SearchValueNotFoundC1ERKNSt7__cxx1112basic_stringIcSt11char_traitsIcESaIcEEE,_ZN19SearchValueNotFoundC2ERKNSt7__cxx1112basic_stringIcSt11char_traitsIcESaIcEEE
	.section	.rodata
.LC1:
	.string	"Empty queue"
	.section	.text._ZNK19SearchValueNotFound4whatEv,"axG",@progbits,_ZNK19SearchValueNotFound4whatEv,comdat
	.align 2
	.weak	_ZNK19SearchValueNotFound4whatEv
	.type	_ZNK19SearchValueNotFound4whatEv, @function
_ZNK19SearchValueNotFound4whatEv:
.LFB954:
	.loc 1 14 0
	.cfi_startproc
	push	rbp	#
	.cfi_def_cfa_offset 16
	.cfi_offset 6, -16
	mov	rbp, rsp	#,
	.cfi_def_cfa_register 6
	mov	QWORD PTR -8[rbp], rdi	# this, this
	.loc 1 16 0
	lea	rax, .LC1[rip]	# _1,
	.loc 1 17 0
	pop	rbp	#
	.cfi_def_cfa 7, 8
	ret
	.cfi_endproc
.LFE954:
	.size	_ZNK19SearchValueNotFound4whatEv, .-_ZNK19SearchValueNotFound4whatEv
	.section	.text._ZStorSt13_Ios_OpenmodeS_,"axG",@progbits,_ZStorSt13_Ios_OpenmodeS_,comdat
	.weak	_ZStorSt13_Ios_OpenmodeS_
	.type	_ZStorSt13_Ios_OpenmodeS_, @function
_ZStorSt13_Ios_OpenmodeS_:
.LFB1258:
	.file 2 "/usr/include/c++/6/bits/ios_base.h"
	.loc 2 130 0
	.cfi_startproc
	push	rbp	#
	.cfi_def_cfa_offset 16
	.cfi_offset 6, -16
	mov	rbp, rsp	#,
	.cfi_def_cfa_register 6
	mov	DWORD PTR -4[rbp], edi	# __a, __a
	mov	DWORD PTR -8[rbp], esi	# __b, __b
	.loc 2 130 0
	mov	eax, DWORD PTR -4[rbp]	# tmp89, __a
	or	eax, DWORD PTR -8[rbp]	# _3, __b
	pop	rbp	#
	.cfi_def_cfa 7, 8
	ret
	.cfi_endproc
.LFE1258:
	.size	_ZStorSt13_Ios_OpenmodeS_, .-_ZStorSt13_Ios_OpenmodeS_
	.local	_ZStL8__ioinit
	.comm	_ZStL8__ioinit,1,1
	.section	.rodata
	.type	_ZStL13allocator_arg, @object
	.size	_ZStL13allocator_arg, 1
_ZStL13allocator_arg:
	.zero	1
	.type	_ZStL6ignore, @object
	.size	_ZStL6ignore, 1
_ZStL6ignore:
	.zero	1
	.align 8
	.type	_ZN7testing8internalL14kMaxBiggestIntE, @object
	.size	_ZN7testing8internalL14kMaxBiggestIntE, 8
_ZN7testing8internalL14kMaxBiggestIntE:
	.quad	9223372036854775807
	.section	.text._ZN7testing8internal15TestFactoryBaseD2Ev,"axG",@progbits,_ZN7testing8internal15TestFactoryBaseD5Ev,comdat
	.align 2
	.weak	_ZN7testing8internal15TestFactoryBaseD2Ev
	.type	_ZN7testing8internal15TestFactoryBaseD2Ev, @function
_ZN7testing8internal15TestFactoryBaseD2Ev:
.LFB3455:
	.file 3 "/opt/gtest/googletest/include/gtest/internal/gtest-internal.h"
	.loc 3 488 0
	.cfi_startproc
	push	rbp	#
	.cfi_def_cfa_offset 16
	.cfi_offset 6, -16
	mov	rbp, rsp	#,
	.cfi_def_cfa_register 6
	mov	QWORD PTR -8[rbp], rdi	# this, this
.LBB5:
	.loc 3 488 0
	lea	rdx, _ZTVN7testing8internal15TestFactoryBaseE[rip+16]	# _1,
	mov	rax, QWORD PTR -8[rbp]	# tmp88, this
	mov	QWORD PTR [rax], rdx	# this_3(D)->_vptr.TestFactoryBase, _1
.LBE5:
	nop
	pop	rbp	#
	.cfi_def_cfa 7, 8
	ret
	.cfi_endproc
.LFE3455:
	.size	_ZN7testing8internal15TestFactoryBaseD2Ev, .-_ZN7testing8internal15TestFactoryBaseD2Ev
	.weak	_ZN7testing8internal15TestFactoryBaseD1Ev
	.set	_ZN7testing8internal15TestFactoryBaseD1Ev,_ZN7testing8internal15TestFactoryBaseD2Ev
	.section	.text._ZN7testing8internal15TestFactoryBaseD0Ev,"axG",@progbits,_ZN7testing8internal15TestFactoryBaseD5Ev,comdat
	.align 2
	.weak	_ZN7testing8internal15TestFactoryBaseD0Ev
	.type	_ZN7testing8internal15TestFactoryBaseD0Ev, @function
_ZN7testing8internal15TestFactoryBaseD0Ev:
.LFB3457:
	.loc 3 488 0
	.cfi_startproc
	push	rbp	#
	.cfi_def_cfa_offset 16
	.cfi_offset 6, -16
	mov	rbp, rsp	#,
	.cfi_def_cfa_register 6
	sub	rsp, 16	#,
	mov	QWORD PTR -8[rbp], rdi	# this, this
	.loc 3 488 0
	mov	rax, QWORD PTR -8[rbp]	# tmp87, this
	mov	rdi, rax	#, tmp87
	call	_ZN7testing8internal15TestFactoryBaseD1Ev	#
	mov	rax, QWORD PTR -8[rbp]	# tmp88, this
	mov	esi, 8	#,
	mov	rdi, rax	#, tmp88
	call	_ZdlPvm@PLT	#
	leave
	.cfi_def_cfa 7, 8
	ret
	.cfi_endproc
.LFE3457:
	.size	_ZN7testing8internal15TestFactoryBaseD0Ev, .-_ZN7testing8internal15TestFactoryBaseD0Ev
	.section	.text._ZN7testing8internal15TestFactoryBaseC2Ev,"axG",@progbits,_ZN7testing8internal15TestFactoryBaseC5Ev,comdat
	.align 2
	.weak	_ZN7testing8internal15TestFactoryBaseC2Ev
	.type	_ZN7testing8internal15TestFactoryBaseC2Ev, @function
_ZN7testing8internal15TestFactoryBaseC2Ev:
.LFB3459:
	.loc 3 495 0
	.cfi_startproc
	push	rbp	#
	.cfi_def_cfa_offset 16
	.cfi_offset 6, -16
	mov	rbp, rsp	#,
	.cfi_def_cfa_register 6
	mov	QWORD PTR -8[rbp], rdi	# this, this
.LBB6:
	.loc 3 495 0
	lea	rdx, _ZTVN7testing8internal15TestFactoryBaseE[rip+16]	# _4,
	mov	rax, QWORD PTR -8[rbp]	# tmp88, this
	mov	QWORD PTR [rax], rdx	# this_2(D)->_vptr.TestFactoryBase, _4
.LBE6:
	nop
	pop	rbp	#
	.cfi_def_cfa 7, 8
	ret
	.cfi_endproc
.LFE3459:
	.size	_ZN7testing8internal15TestFactoryBaseC2Ev, .-_ZN7testing8internal15TestFactoryBaseC2Ev
	.weak	_ZN7testing8internal15TestFactoryBaseC1Ev
	.set	_ZN7testing8internal15TestFactoryBaseC1Ev,_ZN7testing8internal15TestFactoryBaseC2Ev
	.section	.text._ZN7testing8internal12CodeLocationC2ERKNSt7__cxx1112basic_stringIcSt11char_traitsIcESaIcEEEi,"axG",@progbits,_ZN7testing8internal12CodeLocationC5ERKNSt7__cxx1112basic_stringIcSt11char_traitsIcESaIcEEEi,comdat
	.align 2
	.weak	_ZN7testing8internal12CodeLocationC2ERKNSt7__cxx1112basic_stringIcSt11char_traitsIcESaIcEEEi
	.type	_ZN7testing8internal12CodeLocationC2ERKNSt7__cxx1112basic_stringIcSt11char_traitsIcESaIcEEEi, @function
_ZN7testing8internal12CodeLocationC2ERKNSt7__cxx1112basic_stringIcSt11char_traitsIcESaIcEEEi:
.LFB3463:
	.loc 3 527 0
	.cfi_startproc
	push	rbp	#
	.cfi_def_cfa_offset 16
	.cfi_offset 6, -16
	mov	rbp, rsp	#,
	.cfi_def_cfa_register 6
	sub	rsp, 32	#,
	mov	QWORD PTR -8[rbp], rdi	# this, this
	mov	QWORD PTR -16[rbp], rsi	# a_file, a_file
	mov	DWORD PTR -20[rbp], edx	# a_line, a_line
.LBB7:
	.loc 3 528 0
	mov	rax, QWORD PTR -8[rbp]	# _4, this
	mov	rdx, QWORD PTR -16[rbp]	# tmp88, a_file
	mov	rsi, rdx	#, tmp88
	mov	rdi, rax	#, _4
	call	_ZNSt7__cxx1112basic_stringIcSt11char_traitsIcESaIcEEC1ERKS4_@PLT	#
	mov	rax, QWORD PTR -8[rbp]	# tmp89, this
	mov	edx, DWORD PTR -20[rbp]	# tmp90, a_line
	mov	DWORD PTR 32[rax], edx	# this_2(D)->line, tmp90
.LBE7:
	nop
	leave
	.cfi_def_cfa 7, 8
	ret
	.cfi_endproc
.LFE3463:
	.size	_ZN7testing8internal12CodeLocationC2ERKNSt7__cxx1112basic_stringIcSt11char_traitsIcESaIcEEEi, .-_ZN7testing8internal12CodeLocationC2ERKNSt7__cxx1112basic_stringIcSt11char_traitsIcESaIcEEEi
	.weak	_ZN7testing8internal12CodeLocationC1ERKNSt7__cxx1112basic_stringIcSt11char_traitsIcESaIcEEEi
	.set	_ZN7testing8internal12CodeLocationC1ERKNSt7__cxx1112basic_stringIcSt11char_traitsIcESaIcEEEi,_ZN7testing8internal12CodeLocationC2ERKNSt7__cxx1112basic_stringIcSt11char_traitsIcESaIcEEEi
	.section	.text._ZN7testing8internal12CodeLocationD2Ev,"axG",@progbits,_ZN7testing8internal12CodeLocationD5Ev,comdat
	.align 2
	.weak	_ZN7testing8internal12CodeLocationD2Ev
	.type	_ZN7testing8internal12CodeLocationD2Ev, @function
_ZN7testing8internal12CodeLocationD2Ev:
.LFB3473:
	.loc 3 526 0
	.cfi_startproc
	push	rbp	#
	.cfi_def_cfa_offset 16
	.cfi_offset 6, -16
	mov	rbp, rsp	#,
	.cfi_def_cfa_register 6
	sub	rsp, 16	#,
	mov	QWORD PTR -8[rbp], rdi	# this, this
.LBB8:
	.loc 3 526 0
	mov	rax, QWORD PTR -8[rbp]	# _2, this
	mov	rdi, rax	#, _2
	call	_ZNSt7__cxx1112basic_stringIcSt11char_traitsIcESaIcEED1Ev@PLT	#
.LBE8:
	nop
	leave
	.cfi_def_cfa 7, 8
	ret
	.cfi_endproc
.LFE3473:
	.size	_ZN7testing8internal12CodeLocationD2Ev, .-_ZN7testing8internal12CodeLocationD2Ev
	.weak	_ZN7testing8internal12CodeLocationD1Ev
	.set	_ZN7testing8internal12CodeLocationD1Ev,_ZN7testing8internal12CodeLocationD2Ev
	.section	.text._ZN7testing8internal12ConstCharPtrC2EPKc,"axG",@progbits,_ZN7testing8internal12ConstCharPtrC5EPKc,comdat
	.align 2
	.weak	_ZN7testing8internal12ConstCharPtrC2EPKc
	.type	_ZN7testing8internal12ConstCharPtrC2EPKc, @function
_ZN7testing8internal12ConstCharPtrC2EPKc:
.LFB3519:
	.loc 3 765 0
	.cfi_startproc
	push	rbp	#
	.cfi_def_cfa_offset 16
	.cfi_offset 6, -16
	mov	rbp, rsp	#,
	.cfi_def_cfa_register 6
	mov	QWORD PTR -8[rbp], rdi	# this, this
	mov	QWORD PTR -16[rbp], rsi	# str, str
.LBB9:
	.loc 3 765 0
	mov	rax, QWORD PTR -8[rbp]	# tmp87, this
	mov	rdx, QWORD PTR -16[rbp]	# tmp88, str
	mov	QWORD PTR [rax], rdx	# this_2(D)->value, tmp88
.LBE9:
	nop
	pop	rbp	#
	.cfi_def_cfa 7, 8
	ret
	.cfi_endproc
.LFE3519:
	.size	_ZN7testing8internal12ConstCharPtrC2EPKc, .-_ZN7testing8internal12ConstCharPtrC2EPKc
	.weak	_ZN7testing8internal12ConstCharPtrC1EPKc
	.set	_ZN7testing8internal12ConstCharPtrC1EPKc,_ZN7testing8internal12ConstCharPtrC2EPKc
	.section	.text._ZNK7testing8internal12ConstCharPtrcvbEv,"axG",@progbits,_ZNK7testing8internal12ConstCharPtrcvbEv,comdat
	.align 2
	.weak	_ZNK7testing8internal12ConstCharPtrcvbEv
	.type	_ZNK7testing8internal12ConstCharPtrcvbEv, @function
_ZNK7testing8internal12ConstCharPtrcvbEv:
.LFB3521:
	.loc 3 766 0
	.cfi_startproc
	push	rbp	#
	.cfi_def_cfa_offset 16
	.cfi_offset 6, -16
	mov	rbp, rsp	#,
	.cfi_def_cfa_register 6
	mov	QWORD PTR -8[rbp], rdi	# this, this
	.loc 3 766 0
	mov	eax, 1	# _1,
	pop	rbp	#
	.cfi_def_cfa 7, 8
	ret
	.cfi_endproc
.LFE3521:
	.size	_ZNK7testing8internal12ConstCharPtrcvbEv, .-_ZNK7testing8internal12ConstCharPtrcvbEv
	.section	.rodata
	.align 16
	.type	_ZN7testing8internalL19kDeathTestStyleFlagE, @object
	.size	_ZN7testing8internalL19kDeathTestStyleFlagE, 17
_ZN7testing8internalL19kDeathTestStyleFlagE:
	.string	"death_test_style"
	.align 16
	.type	_ZN7testing8internalL17kDeathTestUseForkE, @object
	.size	_ZN7testing8internalL17kDeathTestUseForkE, 20
_ZN7testing8internalL17kDeathTestUseForkE:
	.string	"death_test_use_fork"
	.align 16
	.type	_ZN7testing8internalL25kInternalRunDeathTestFlagE, @object
	.size	_ZN7testing8internalL25kInternalRunDeathTestFlagE, 24
_ZN7testing8internalL25kInternalRunDeathTestFlagE:
	.string	"internal_run_death_test"
	.align 8
	.type	_ZN7testing9internal2L26kProtobufOneLinerMaxLengthE, @object
	.size	_ZN7testing9internal2L26kProtobufOneLinerMaxLengthE, 8
_ZN7testing9internal2L26kProtobufOneLinerMaxLengthE:
	.quad	50
	.align 4
	.type	_ZN7testingL19kMaxStackTraceDepthE, @object
	.size	_ZN7testingL19kMaxStackTraceDepthE, 4
_ZN7testingL19kMaxStackTraceDepthE:
	.long	100
	.section	.text._ZNK7testing15AssertionResultcvbEv,"axG",@progbits,_ZNK7testing15AssertionResultcvbEv,comdat
	.align 2
	.weak	_ZNK7testing15AssertionResultcvbEv
	.type	_ZNK7testing15AssertionResultcvbEv, @function
_ZNK7testing15AssertionResultcvbEv:
.LFB4086:
	.file 4 "/opt/gtest/googletest/include/gtest/gtest.h"
	.loc 4 292 0
	.cfi_startproc
	push	rbp	#
	.cfi_def_cfa_offset 16
	.cfi_offset 6, -16
	mov	rbp, rsp	#,
	.cfi_def_cfa_register 6
	mov	QWORD PTR -8[rbp], rdi	# this, this
	.loc 4 292 0
	mov	rax, QWORD PTR -8[rbp]	# tmp89, this
	movzx	eax, BYTE PTR [rax]	# _3, this_2(D)->success_
	pop	rbp	#
	.cfi_def_cfa 7, 8
	ret
	.cfi_endproc
.LFE4086:
	.size	_ZNK7testing15AssertionResultcvbEv, .-_ZNK7testing15AssertionResultcvbEv
	.section	.text._ZNK7testing15AssertionResult7messageEv,"axG",@progbits,_ZNK7testing15AssertionResult7messageEv,comdat
	.align 2
	.weak	_ZNK7testing15AssertionResult7messageEv
	.type	_ZNK7testing15AssertionResult7messageEv, @function
_ZNK7testing15AssertionResult7messageEv:
.LFB4087:
	.loc 4 301 0
	.cfi_startproc
	push	rbp	#
	.cfi_def_cfa_offset 16
	.cfi_offset 6, -16
	mov	rbp, rsp	#,
	.cfi_def_cfa_register 6
	sub	rsp, 16	#,
	mov	QWORD PTR -8[rbp], rdi	# this, this
	.loc 4 302 0
	mov	rax, QWORD PTR -8[rbp]	# tmp93, this
	add	rax, 8	# _4,
	mov	rdi, rax	#, _4
	call	_ZNK7testing8internal10scoped_ptrINSt7__cxx1112basic_stringIcSt11char_traitsIcESaIcEEEE3getEv	#
	test	rax, rax	# _7
	je	.L23	#,
	.loc 4 302 0 is_stmt 0 discriminator 1
	mov	rax, QWORD PTR -8[rbp]	# tmp94, this
	add	rax, 8	# _8,
	mov	rdi, rax	#, _8
	call	_ZNK7testing8internal10scoped_ptrINSt7__cxx1112basic_stringIcSt11char_traitsIcESaIcEEEEptEv	#
	mov	rdi, rax	#, _10
	call	_ZNKSt7__cxx1112basic_stringIcSt11char_traitsIcESaIcEE5c_strEv@PLT	#
	jmp	.L25	#
.L23:
	.loc 4 302 0 discriminator 2
	lea	rax, .LC0[rip]	# iftmp.4_1,
.L25:
	.loc 4 303 0 is_stmt 1 discriminator 5
	leave
	.cfi_def_cfa 7, 8
	ret
	.cfi_endproc
.LFE4087:
	.size	_ZNK7testing15AssertionResult7messageEv, .-_ZNK7testing15AssertionResult7messageEv
	.section	.text._ZNK7testing15AssertionResult15failure_messageEv,"axG",@progbits,_ZNK7testing15AssertionResult15failure_messageEv,comdat
	.align 2
	.weak	_ZNK7testing15AssertionResult15failure_messageEv
	.type	_ZNK7testing15AssertionResult15failure_messageEv, @function
_ZNK7testing15AssertionResult15failure_messageEv:
.LFB4088:
	.loc 4 306 0
	.cfi_startproc
	push	rbp	#
	.cfi_def_cfa_offset 16
	.cfi_offset 6, -16
	mov	rbp, rsp	#,
	.cfi_def_cfa_register 6
	sub	rsp, 16	#,
	mov	QWORD PTR -8[rbp], rdi	# this, this
	.loc 4 306 0
	mov	rax, QWORD PTR -8[rbp]	# tmp89, this
	mov	rdi, rax	#, tmp89
	call	_ZNK7testing15AssertionResult7messageEv	#
	leave
	.cfi_def_cfa 7, 8
	ret
	.cfi_endproc
.LFE4088:
	.size	_ZNK7testing15AssertionResult15failure_messageEv, .-_ZNK7testing15AssertionResult15failure_messageEv
	.section	.text._ZN7testing7MessageD2Ev,"axG",@progbits,_ZN7testing7MessageD5Ev,comdat
	.align 2
	.weak	_ZN7testing7MessageD2Ev
	.type	_ZN7testing7MessageD2Ev, @function
_ZN7testing7MessageD2Ev:
.LFB4092:
	.file 5 "/opt/gtest/googletest/include/gtest/gtest-message.h"
	.loc 5 85 0
	.cfi_startproc
	push	rbp	#
	.cfi_def_cfa_offset 16
	.cfi_offset 6, -16
	mov	rbp, rsp	#,
	.cfi_def_cfa_register 6
	sub	rsp, 16	#,
	mov	QWORD PTR -8[rbp], rdi	# this, this
.LBB10:
	.loc 5 85 0
	mov	rax, QWORD PTR -8[rbp]	# _2, this
	mov	rdi, rax	#, _2
	call	_ZN7testing8internal10scoped_ptrINSt7__cxx1118basic_stringstreamIcSt11char_traitsIcESaIcEEEED1Ev	#
.LBE10:
	nop
	leave
	.cfi_def_cfa 7, 8
	ret
	.cfi_endproc
.LFE4092:
	.size	_ZN7testing7MessageD2Ev, .-_ZN7testing7MessageD2Ev
	.weak	_ZN7testing7MessageD1Ev
	.set	_ZN7testing7MessageD1Ev,_ZN7testing7MessageD2Ev
	.section	.text._ZN7testing4Test13SetUpTestCaseEv,"axG",@progbits,_ZN7testing4Test13SetUpTestCaseEv,comdat
	.weak	_ZN7testing4Test13SetUpTestCaseEv
	.type	_ZN7testing4Test13SetUpTestCaseEv, @function
_ZN7testing4Test13SetUpTestCaseEv:
.LFB4095:
	.loc 4 393 0
	.cfi_startproc
	push	rbp	#
	.cfi_def_cfa_offset 16
	.cfi_offset 6, -16
	mov	rbp, rsp	#,
	.cfi_def_cfa_register 6
	.loc 4 393 0
	nop
	pop	rbp	#
	.cfi_def_cfa 7, 8
	ret
	.cfi_endproc
.LFE4095:
	.size	_ZN7testing4Test13SetUpTestCaseEv, .-_ZN7testing4Test13SetUpTestCaseEv
	.section	.text._ZN7testing4Test16TearDownTestCaseEv,"axG",@progbits,_ZN7testing4Test16TearDownTestCaseEv,comdat
	.weak	_ZN7testing4Test16TearDownTestCaseEv
	.type	_ZN7testing4Test16TearDownTestCaseEv, @function
_ZN7testing4Test16TearDownTestCaseEv:
.LFB4096:
	.loc 4 401 0
	.cfi_startproc
	push	rbp	#
	.cfi_def_cfa_offset 16
	.cfi_offset 6, -16
	mov	rbp, rsp	#,
	.cfi_def_cfa_register 6
	.loc 4 401 0
	nop
	pop	rbp	#
	.cfi_def_cfa 7, 8
	ret
	.cfi_endproc
.LFE4096:
	.size	_ZN7testing4Test16TearDownTestCaseEv, .-_ZN7testing4Test16TearDownTestCaseEv
	.section	.text._ZN7testing4Test5SetupEv,"axG",@progbits,_ZN7testing4Test5SetupEv,comdat
	.align 2
	.weak	_ZN7testing4Test5SetupEv
	.type	_ZN7testing4Test5SetupEv, @function
_ZN7testing4Test5SetupEv:
.LFB4099:
	.loc 4 478 0
	.cfi_startproc
	push	rbp	#
	.cfi_def_cfa_offset 16
	.cfi_offset 6, -16
	mov	rbp, rsp	#,
	.cfi_def_cfa_register 6
	mov	QWORD PTR -8[rbp], rdi	# this, this
	.loc 4 478 0
	mov	eax, 0	# _1,
	pop	rbp	#
	.cfi_def_cfa 7, 8
	ret
	.cfi_endproc
.LFE4099:
	.size	_ZN7testing4Test5SetupEv, .-_ZN7testing4Test5SetupEv
	.section	.text._ZN37BinarySearch_test_positives_even_TestC2Ev,"axG",@progbits,_ZN37BinarySearch_test_positives_even_TestC5Ev,comdat
	.align 2
	.weak	_ZN37BinarySearch_test_positives_even_TestC2Ev
	.type	_ZN37BinarySearch_test_positives_even_TestC2Ev, @function
_ZN37BinarySearch_test_positives_even_TestC2Ev:
.LFB4199:
	.file 6 "unit.cpp"
	.loc 6 4 0
	.cfi_startproc
	push	rbp	#
	.cfi_def_cfa_offset 16
	.cfi_offset 6, -16
	mov	rbp, rsp	#,
	.cfi_def_cfa_register 6
	sub	rsp, 16	#,
	mov	QWORD PTR -8[rbp], rdi	# this, this
.LBB11:
	.loc 6 4 0
	mov	rax, QWORD PTR -8[rbp]	# _4, this
	mov	rdi, rax	#, _4
	call	_ZN7testing4TestC2Ev@PLT	#
	lea	rdx, _ZTV37BinarySearch_test_positives_even_Test[rip+16]	# _6,
	mov	rax, QWORD PTR -8[rbp]	# tmp89, this
	mov	QWORD PTR [rax], rdx	# this_2(D)->D.105347._vptr.Test, _6
.LBE11:
	nop
	leave
	.cfi_def_cfa 7, 8
	ret
	.cfi_endproc
.LFE4199:
	.size	_ZN37BinarySearch_test_positives_even_TestC2Ev, .-_ZN37BinarySearch_test_positives_even_TestC2Ev
	.weak	_ZN37BinarySearch_test_positives_even_TestC1Ev
	.set	_ZN37BinarySearch_test_positives_even_TestC1Ev,_ZN37BinarySearch_test_positives_even_TestC2Ev
	.section	.text._ZN7testing8internal15TestFactoryImplI37BinarySearch_test_positives_even_TestEC2Ev,"axG",@progbits,_ZN7testing8internal15TestFactoryImplI37BinarySearch_test_positives_even_TestEC5Ev,comdat
	.align 2
	.weak	_ZN7testing8internal15TestFactoryImplI37BinarySearch_test_positives_even_TestEC2Ev
	.type	_ZN7testing8internal15TestFactoryImplI37BinarySearch_test_positives_even_TestEC2Ev, @function
_ZN7testing8internal15TestFactoryImplI37BinarySearch_test_positives_even_TestEC2Ev:
.LFB4202:
	.loc 3 504 0
	.cfi_startproc
	push	rbp	#
	.cfi_def_cfa_offset 16
	.cfi_offset 6, -16
	mov	rbp, rsp	#,
	.cfi_def_cfa_register 6
	sub	rsp, 16	#,
	mov	QWORD PTR -8[rbp], rdi	# this, this
.LBB12:
	.loc 3 504 0
	mov	rax, QWORD PTR -8[rbp]	# _2, this
	mov	rdi, rax	#, _2
	call	_ZN7testing8internal15TestFactoryBaseC2Ev	#
	lea	rdx, _ZTVN7testing8internal15TestFactoryImplI37BinarySearch_test_positives_even_TestEE[rip+16]	# _5,
	mov	rax, QWORD PTR -8[rbp]	# tmp89, this
	mov	QWORD PTR [rax], rdx	# this_1(D)->D.105375._vptr.TestFactoryBase, _5
.LBE12:
	nop
	leave
	.cfi_def_cfa 7, 8
	ret
	.cfi_endproc
.LFE4202:
	.size	_ZN7testing8internal15TestFactoryImplI37BinarySearch_test_positives_even_TestEC2Ev, .-_ZN7testing8internal15TestFactoryImplI37BinarySearch_test_positives_even_TestEC2Ev
	.weak	_ZN7testing8internal15TestFactoryImplI37BinarySearch_test_positives_even_TestEC1Ev
	.set	_ZN7testing8internal15TestFactoryImplI37BinarySearch_test_positives_even_TestEC1Ev,_ZN7testing8internal15TestFactoryImplI37BinarySearch_test_positives_even_TestEC2Ev
	.globl	_ZN37BinarySearch_test_positives_even_Test10test_info_E
	.bss
	.align 8
	.type	_ZN37BinarySearch_test_positives_even_Test10test_info_E, @object
	.size	_ZN37BinarySearch_test_positives_even_Test10test_info_E, 8
_ZN37BinarySearch_test_positives_even_Test10test_info_E:
	.zero	8
	.section	.text._ZN7testing15AssertionResultD2Ev,"axG",@progbits,_ZN7testing15AssertionResultD5Ev,comdat
	.align 2
	.weak	_ZN7testing15AssertionResultD2Ev
	.type	_ZN7testing15AssertionResultD2Ev, @function
_ZN7testing15AssertionResultD2Ev:
.LFB4206:
	.loc 4 256 0
	.cfi_startproc
	push	rbp	#
	.cfi_def_cfa_offset 16
	.cfi_offset 6, -16
	mov	rbp, rsp	#,
	.cfi_def_cfa_register 6
	sub	rsp, 16	#,
	mov	QWORD PTR -8[rbp], rdi	# this, this
.LBB13:
	.loc 4 256 0
	mov	rax, QWORD PTR -8[rbp]	# tmp88, this
	add	rax, 8	# _2,
	mov	rdi, rax	#, _2
	call	_ZN7testing8internal10scoped_ptrINSt7__cxx1112basic_stringIcSt11char_traitsIcESaIcEEEED1Ev	#
.LBE13:
	nop
	leave
	.cfi_def_cfa 7, 8
	ret
	.cfi_endproc
.LFE4206:
	.size	_ZN7testing15AssertionResultD2Ev, .-_ZN7testing15AssertionResultD2Ev
	.weak	_ZN7testing15AssertionResultD1Ev
	.set	_ZN7testing15AssertionResultD1Ev,_ZN7testing15AssertionResultD2Ev
	.section	.rodata
	.align 8
.LC2:
	.string	"Expected: search(arr, 4, 1) doesn't throw an exception.\n  Actual: it throws."
.LC3:
	.string	"unit.cpp"
.LC4:
	.string	"0"
.LC5:
	.string	"result"
	.text
	.align 2
	.globl	_ZN37BinarySearch_test_positives_even_Test8TestBodyEv
	.type	_ZN37BinarySearch_test_positives_even_Test8TestBodyEv, @function
_ZN37BinarySearch_test_positives_even_Test8TestBodyEv:
.LFB4204:
	.loc 6 5 0
	.cfi_startproc
	.cfi_personality 0x9b,DW.ref.__gxx_personality_v0
	.cfi_lsda 0x1b,.LLSDA4204
	push	rbp	#
	.cfi_def_cfa_offset 16
	.cfi_offset 6, -16
	mov	rbp, rsp	#,
	.cfi_def_cfa_register 6
	push	rbx	#
	sub	rsp, 120	#,
	.cfi_offset 3, -24
	mov	QWORD PTR -120[rbp], rdi	# this, this
	.loc 6 6 0
	mov	DWORD PTR -80[rbp], 1	# arr,
	mov	DWORD PTR -76[rbp], 3	# arr,
	mov	DWORD PTR -72[rbp], 5	# arr,
	mov	DWORD PTR -68[rbp], 7	# arr,
.LEHB3:
	.loc 6 8 0
	call	_ZN7testing8internal10AlwaysTrueEv@PLT	#
.LEHE3:
	test	al, al	# _16
	je	.L37	#,
.LEHB4:
	.loc 6 8 0 is_stmt 0 discriminator 3
	call	_ZN7testing8internal10AlwaysTrueEv@PLT	#
	test	al, al	# _19
	je	.L38	#,
	.loc 6 8 0 discriminator 6
	lea	rax, -80[rbp]	# tmp95,
	mov	edx, 1	#,
	mov	esi, 4	#,
	mov	rdi, rax	#, tmp95
	call	_Z6searchIiEmPT_mS0_	#
.LEHE4:
	jmp	.L38	#
.L37:
	.loc 6 8 0 discriminator 4
	lea	rax, -56[rbp]	# tmp96,
	mov	rdi, rax	#, tmp96
.LEHB5:
	call	_ZN7testing7MessageC1Ev@PLT	#
.LEHE5:
	lea	rax, -48[rbp]	# tmp97,
	lea	r8, .LC2[rip]	#,
	mov	ecx, 8	#,
	lea	rdx, .LC3[rip]	#,
	mov	esi, 1	#,
	mov	rdi, rax	#, tmp97
.LEHB6:
	call	_ZN7testing8internal12AssertHelperC1ENS_14TestPartResult4TypeEPKciS5_@PLT	#
.LEHE6:
	.loc 6 8 0 discriminator 9
	lea	rdx, -56[rbp]	# tmp98,
	lea	rax, -48[rbp]	# tmp99,
	mov	rsi, rdx	#, tmp98
	mov	rdi, rax	#, tmp99
.LEHB7:
	call	_ZNK7testing8internal12AssertHelperaSERKNS_7MessageE@PLT	#
.LEHE7:
	.loc 6 8 0 discriminator 11
	lea	rax, -48[rbp]	# tmp100,
	mov	rdi, rax	#, tmp100
	call	_ZN7testing8internal12AssertHelperD1Ev@PLT	#
	lea	rax, -56[rbp]	# tmp101,
	mov	rdi, rax	#, tmp101
	call	_ZN7testing7MessageD1Ev	#
.L38:
	.loc 6 9 0 is_stmt 1
	lea	rax, -80[rbp]	# tmp102,
	mov	edx, 1	#,
	mov	esi, 4	#,
	mov	rdi, rax	#, tmp102
.LEHB8:
	call	_Z6searchIiEmPT_mS0_	#
	mov	QWORD PTR -88[rbp], rax	# result, _37
.LBB14:
.LBB15:
.LBB16:
	.loc 6 11 0
	mov	DWORD PTR -36[rbp], 0	# D.105453,
	lea	rax, -112[rbp]	# tmp103,
	lea	rcx, -36[rbp]	# tmp104,
	lea	rdx, -88[rbp]	# tmp105,
	mov	r8, rcx	#, tmp104
	mov	rcx, rdx	#, tmp105
	lea	rdx, .LC4[rip]	#,
	lea	rsi, .LC5[rip]	#,
	mov	rdi, rax	#, tmp103
	call	_ZN7testing8internal8EqHelperILb0EE7CompareImiEENS_15AssertionResultEPKcS6_RKT_RKT0_	#
.LEHE8:
	lea	rax, -112[rbp]	# tmp106,
	mov	rdi, rax	#, tmp106
	call	_ZNK7testing15AssertionResultcvbEv	#
	test	al, al	# retval.3_44
	jne	.L39	#,
	.loc 6 11 0 is_stmt 0 discriminator 4
	lea	rax, -32[rbp]	# tmp107,
	mov	rdi, rax	#, tmp107
.LEHB9:
	call	_ZN7testing7MessageC1Ev@PLT	#
.LEHE9:
	.loc 6 11 0 discriminator 6
	lea	rax, -112[rbp]	# tmp108,
	mov	rdi, rax	#, tmp108
	call	_ZNK7testing15AssertionResult15failure_messageEv	#
	mov	rdx, rax	# _47,
	lea	rax, -24[rbp]	# tmp109,
	mov	r8, rdx	#, _47
	mov	ecx, 11	#,
	lea	rdx, .LC3[rip]	#,
	mov	esi, 1	#,
	mov	rdi, rax	#, tmp109
.LEHB10:
	call	_ZN7testing8internal12AssertHelperC1ENS_14TestPartResult4TypeEPKciS5_@PLT	#
.LEHE10:
	.loc 6 11 0 discriminator 10
	lea	rdx, -32[rbp]	# tmp110,
	lea	rax, -24[rbp]	# tmp111,
	mov	rsi, rdx	#, tmp110
	mov	rdi, rax	#, tmp111
.LEHB11:
	call	_ZNK7testing8internal12AssertHelperaSERKNS_7MessageE@PLT	#
.LEHE11:
	.loc 6 11 0 discriminator 12
	lea	rax, -24[rbp]	# tmp112,
	mov	rdi, rax	#, tmp112
	call	_ZN7testing8internal12AssertHelperD1Ev@PLT	#
	lea	rax, -32[rbp]	# tmp113,
	mov	rdi, rax	#, tmp113
	call	_ZN7testing7MessageD1Ev	#
.L39:
	.loc 6 11 0 discriminator 13
	lea	rax, -112[rbp]	# tmp114,
	mov	rdi, rax	#, tmp114
	call	_ZN7testing15AssertionResultD1Ev	#
.LBE16:
.LBE15:
.LBE14:
	.loc 6 12 0 is_stmt 1 discriminator 13
	jmp	.L52	#
.L46:
	.loc 6 8 0
	mov	rdi, rax	#, _22
	call	__cxa_begin_catch@PLT	#
	nop
.LEHB12:
	call	__cxa_end_catch@PLT	#
	jmp	.L37	#
.L48:
	mov	rbx, rax	# tmp118,
	lea	rax, -48[rbp]	# tmp116,
	mov	rdi, rax	#, tmp116
	call	_ZN7testing8internal12AssertHelperD1Ev@PLT	#
	jmp	.L42	#
.L47:
	mov	rbx, rax	# tmp117,
.L42:
	.loc 6 8 0 is_stmt 0 discriminator 8
	lea	rax, -56[rbp]	# tmp121,
	mov	rdi, rax	#, tmp121
	call	_ZN7testing7MessageD1Ev	#
	mov	rax, rbx	# D.115954, tmp117
	mov	rdi, rax	#, D.115954
	call	_Unwind_Resume@PLT	#
.L51:
	mov	rbx, rax	# tmp124,
.LBB19:
.LBB18:
.LBB17:
	.loc 6 11 0 is_stmt 1
	lea	rax, -24[rbp]	# tmp122,
	mov	rdi, rax	#, tmp122
	call	_ZN7testing8internal12AssertHelperD1Ev@PLT	#
	jmp	.L44	#
.L50:
	mov	rbx, rax	# tmp123,
.L44:
	.loc 6 11 0 is_stmt 0 discriminator 9
	lea	rax, -32[rbp]	# tmp127,
	mov	rdi, rax	#, tmp127
	call	_ZN7testing7MessageD1Ev	#
	jmp	.L45	#
.L49:
	mov	rbx, rax	# tmp128,
.L45:
	.loc 6 11 0 discriminator 5
	lea	rax, -112[rbp]	# tmp130,
	mov	rdi, rax	#, tmp130
	call	_ZN7testing15AssertionResultD1Ev	#
	mov	rax, rbx	# D.115955, tmp128
	mov	rdi, rax	#, D.115955
	call	_Unwind_Resume@PLT	#
.LEHE12:
.L52:
.LBE17:
.LBE18:
.LBE19:
	.loc 6 12 0 is_stmt 1
	add	rsp, 120	#,
	pop	rbx	#
	pop	rbp	#
	.cfi_def_cfa 7, 8
	ret
	.cfi_endproc
.LFE4204:
	.section	.gcc_except_table,"a",@progbits
	.align 4
.LLSDA4204:
	.byte	0xff
	.byte	0x9b
	.uleb128 .LLSDATT4204-.LLSDATTD4204
.LLSDATTD4204:
	.byte	0x1
	.uleb128 .LLSDACSE4204-.LLSDACSB4204
.LLSDACSB4204:
	.uleb128 .LEHB3-.LFB4204
	.uleb128 .LEHE3-.LEHB3
	.uleb128 0
	.uleb128 0
	.uleb128 .LEHB4-.LFB4204
	.uleb128 .LEHE4-.LEHB4
	.uleb128 .L46-.LFB4204
	.uleb128 0x1
	.uleb128 .LEHB5-.LFB4204
	.uleb128 .LEHE5-.LEHB5
	.uleb128 0
	.uleb128 0
	.uleb128 .LEHB6-.LFB4204
	.uleb128 .LEHE6-.LEHB6
	.uleb128 .L47-.LFB4204
	.uleb128 0
	.uleb128 .LEHB7-.LFB4204
	.uleb128 .LEHE7-.LEHB7
	.uleb128 .L48-.LFB4204
	.uleb128 0
	.uleb128 .LEHB8-.LFB4204
	.uleb128 .LEHE8-.LEHB8
	.uleb128 0
	.uleb128 0
	.uleb128 .LEHB9-.LFB4204
	.uleb128 .LEHE9-.LEHB9
	.uleb128 .L49-.LFB4204
	.uleb128 0
	.uleb128 .LEHB10-.LFB4204
	.uleb128 .LEHE10-.LEHB10
	.uleb128 .L50-.LFB4204
	.uleb128 0
	.uleb128 .LEHB11-.LFB4204
	.uleb128 .LEHE11-.LEHB11
	.uleb128 .L51-.LFB4204
	.uleb128 0
	.uleb128 .LEHB12-.LFB4204
	.uleb128 .LEHE12-.LEHB12
	.uleb128 0
	.uleb128 0
.LLSDACSE4204:
	.byte	0x1
	.byte	0
	.align 4
	.long	0

.LLSDATT4204:
	.text
	.size	_ZN37BinarySearch_test_positives_even_Test8TestBodyEv, .-_ZN37BinarySearch_test_positives_even_Test8TestBodyEv
	.section	.text._ZN36BinarySearch_test_positives_odd_TestC2Ev,"axG",@progbits,_ZN36BinarySearch_test_positives_odd_TestC5Ev,comdat
	.align 2
	.weak	_ZN36BinarySearch_test_positives_odd_TestC2Ev
	.type	_ZN36BinarySearch_test_positives_odd_TestC2Ev, @function
_ZN36BinarySearch_test_positives_odd_TestC2Ev:
.LFB4209:
	.loc 6 14 0
	.cfi_startproc
	push	rbp	#
	.cfi_def_cfa_offset 16
	.cfi_offset 6, -16
	mov	rbp, rsp	#,
	.cfi_def_cfa_register 6
	sub	rsp, 16	#,
	mov	QWORD PTR -8[rbp], rdi	# this, this
.LBB20:
	.loc 6 14 0
	mov	rax, QWORD PTR -8[rbp]	# _4, this
	mov	rdi, rax	#, _4
	call	_ZN7testing4TestC2Ev@PLT	#
	lea	rdx, _ZTV36BinarySearch_test_positives_odd_Test[rip+16]	# _6,
	mov	rax, QWORD PTR -8[rbp]	# tmp89, this
	mov	QWORD PTR [rax], rdx	# this_2(D)->D.105510._vptr.Test, _6
.LBE20:
	nop
	leave
	.cfi_def_cfa 7, 8
	ret
	.cfi_endproc
.LFE4209:
	.size	_ZN36BinarySearch_test_positives_odd_TestC2Ev, .-_ZN36BinarySearch_test_positives_odd_TestC2Ev
	.weak	_ZN36BinarySearch_test_positives_odd_TestC1Ev
	.set	_ZN36BinarySearch_test_positives_odd_TestC1Ev,_ZN36BinarySearch_test_positives_odd_TestC2Ev
	.section	.text._ZN7testing8internal15TestFactoryImplI36BinarySearch_test_positives_odd_TestEC2Ev,"axG",@progbits,_ZN7testing8internal15TestFactoryImplI36BinarySearch_test_positives_odd_TestEC5Ev,comdat
	.align 2
	.weak	_ZN7testing8internal15TestFactoryImplI36BinarySearch_test_positives_odd_TestEC2Ev
	.type	_ZN7testing8internal15TestFactoryImplI36BinarySearch_test_positives_odd_TestEC2Ev, @function
_ZN7testing8internal15TestFactoryImplI36BinarySearch_test_positives_odd_TestEC2Ev:
.LFB4212:
	.loc 3 504 0
	.cfi_startproc
	push	rbp	#
	.cfi_def_cfa_offset 16
	.cfi_offset 6, -16
	mov	rbp, rsp	#,
	.cfi_def_cfa_register 6
	sub	rsp, 16	#,
	mov	QWORD PTR -8[rbp], rdi	# this, this
.LBB21:
	.loc 3 504 0
	mov	rax, QWORD PTR -8[rbp]	# _2, this
	mov	rdi, rax	#, _2
	call	_ZN7testing8internal15TestFactoryBaseC2Ev	#
	lea	rdx, _ZTVN7testing8internal15TestFactoryImplI36BinarySearch_test_positives_odd_TestEE[rip+16]	# _5,
	mov	rax, QWORD PTR -8[rbp]	# tmp89, this
	mov	QWORD PTR [rax], rdx	# this_1(D)->D.105538._vptr.TestFactoryBase, _5
.LBE21:
	nop
	leave
	.cfi_def_cfa 7, 8
	ret
	.cfi_endproc
.LFE4212:
	.size	_ZN7testing8internal15TestFactoryImplI36BinarySearch_test_positives_odd_TestEC2Ev, .-_ZN7testing8internal15TestFactoryImplI36BinarySearch_test_positives_odd_TestEC2Ev
	.weak	_ZN7testing8internal15TestFactoryImplI36BinarySearch_test_positives_odd_TestEC1Ev
	.set	_ZN7testing8internal15TestFactoryImplI36BinarySearch_test_positives_odd_TestEC1Ev,_ZN7testing8internal15TestFactoryImplI36BinarySearch_test_positives_odd_TestEC2Ev
	.globl	_ZN36BinarySearch_test_positives_odd_Test10test_info_E
	.bss
	.align 8
	.type	_ZN36BinarySearch_test_positives_odd_Test10test_info_E, @object
	.size	_ZN36BinarySearch_test_positives_odd_Test10test_info_E, 8
_ZN36BinarySearch_test_positives_odd_Test10test_info_E:
	.zero	8
	.section	.rodata
	.align 8
.LC6:
	.string	"Expected: search(arr, 4, 1); doesn't throw an exception.\n  Actual: it throws."
	.text
	.align 2
	.globl	_ZN36BinarySearch_test_positives_odd_Test8TestBodyEv
	.type	_ZN36BinarySearch_test_positives_odd_Test8TestBodyEv, @function
_ZN36BinarySearch_test_positives_odd_Test8TestBodyEv:
.LFB4214:
	.loc 6 15 0
	.cfi_startproc
	.cfi_personality 0x9b,DW.ref.__gxx_personality_v0
	.cfi_lsda 0x1b,.LLSDA4214
	push	rbp	#
	.cfi_def_cfa_offset 16
	.cfi_offset 6, -16
	mov	rbp, rsp	#,
	.cfi_def_cfa_register 6
	push	rbx	#
	sub	rsp, 104	#,
	.cfi_offset 3, -24
	mov	QWORD PTR -104[rbp], rdi	# this, this
	.loc 6 16 0
	mov	DWORD PTR -68[rbp], 1	# arr,
	mov	DWORD PTR -64[rbp], 3	# arr,
	mov	DWORD PTR -60[rbp], 5	# arr,
.LEHB13:
	.loc 6 18 0
	call	_ZN7testing8internal10AlwaysTrueEv@PLT	#
.LEHE13:
	test	al, al	# _15
	je	.L56	#,
.LEHB14:
	.loc 6 18 0 is_stmt 0 discriminator 3
	call	_ZN7testing8internal10AlwaysTrueEv@PLT	#
	test	al, al	# _18
	je	.L57	#,
	.loc 6 18 0 discriminator 6
	lea	rax, -68[rbp]	# tmp95,
	mov	edx, 1	#,
	mov	esi, 4	#,
	mov	rdi, rax	#, tmp95
	call	_Z6searchIiEmPT_mS0_	#
.LEHE14:
	jmp	.L57	#
.L56:
	.loc 6 18 0 discriminator 4
	lea	rax, -56[rbp]	# tmp96,
	mov	rdi, rax	#, tmp96
.LEHB15:
	call	_ZN7testing7MessageC1Ev@PLT	#
.LEHE15:
	lea	rax, -48[rbp]	# tmp97,
	lea	r8, .LC6[rip]	#,
	mov	ecx, 18	#,
	lea	rdx, .LC3[rip]	#,
	mov	esi, 1	#,
	mov	rdi, rax	#, tmp97
.LEHB16:
	call	_ZN7testing8internal12AssertHelperC1ENS_14TestPartResult4TypeEPKciS5_@PLT	#
.LEHE16:
	.loc 6 18 0 discriminator 9
	lea	rdx, -56[rbp]	# tmp98,
	lea	rax, -48[rbp]	# tmp99,
	mov	rsi, rdx	#, tmp98
	mov	rdi, rax	#, tmp99
.LEHB17:
	call	_ZNK7testing8internal12AssertHelperaSERKNS_7MessageE@PLT	#
.LEHE17:
	.loc 6 18 0 discriminator 11
	lea	rax, -48[rbp]	# tmp100,
	mov	rdi, rax	#, tmp100
	call	_ZN7testing8internal12AssertHelperD1Ev@PLT	#
	lea	rax, -56[rbp]	# tmp101,
	mov	rdi, rax	#, tmp101
	call	_ZN7testing7MessageD1Ev	#
.L57:
	.loc 6 19 0 is_stmt 1
	lea	rax, -68[rbp]	# tmp102,
	mov	edx, 1	#,
	mov	esi, 4	#,
	mov	rdi, rax	#, tmp102
.LEHB18:
	call	_Z6searchIiEmPT_mS0_	#
	mov	QWORD PTR -80[rbp], rax	# result, _36
.LBB22:
.LBB23:
.LBB24:
	.loc 6 21 0
	mov	DWORD PTR -36[rbp], 0	# D.105583,
	lea	rax, -96[rbp]	# tmp103,
	lea	rcx, -36[rbp]	# tmp104,
	lea	rdx, -80[rbp]	# tmp105,
	mov	r8, rcx	#, tmp104
	mov	rcx, rdx	#, tmp105
	lea	rdx, .LC4[rip]	#,
	lea	rsi, .LC5[rip]	#,
	mov	rdi, rax	#, tmp103
	call	_ZN7testing8internal8EqHelperILb0EE7CompareImiEENS_15AssertionResultEPKcS6_RKT_RKT0_	#
.LEHE18:
	lea	rax, -96[rbp]	# tmp106,
	mov	rdi, rax	#, tmp106
	call	_ZNK7testing15AssertionResultcvbEv	#
	test	al, al	# retval.10_43
	jne	.L58	#,
	.loc 6 21 0 is_stmt 0 discriminator 4
	lea	rax, -32[rbp]	# tmp107,
	mov	rdi, rax	#, tmp107
.LEHB19:
	call	_ZN7testing7MessageC1Ev@PLT	#
.LEHE19:
	.loc 6 21 0 discriminator 6
	lea	rax, -96[rbp]	# tmp108,
	mov	rdi, rax	#, tmp108
	call	_ZNK7testing15AssertionResult15failure_messageEv	#
	mov	rdx, rax	# _46,
	lea	rax, -24[rbp]	# tmp109,
	mov	r8, rdx	#, _46
	mov	ecx, 21	#,
	lea	rdx, .LC3[rip]	#,
	mov	esi, 1	#,
	mov	rdi, rax	#, tmp109
.LEHB20:
	call	_ZN7testing8internal12AssertHelperC1ENS_14TestPartResult4TypeEPKciS5_@PLT	#
.LEHE20:
	.loc 6 21 0 discriminator 10
	lea	rdx, -32[rbp]	# tmp110,
	lea	rax, -24[rbp]	# tmp111,
	mov	rsi, rdx	#, tmp110
	mov	rdi, rax	#, tmp111
.LEHB21:
	call	_ZNK7testing8internal12AssertHelperaSERKNS_7MessageE@PLT	#
.LEHE21:
	.loc 6 21 0 discriminator 12
	lea	rax, -24[rbp]	# tmp112,
	mov	rdi, rax	#, tmp112
	call	_ZN7testing8internal12AssertHelperD1Ev@PLT	#
	lea	rax, -32[rbp]	# tmp113,
	mov	rdi, rax	#, tmp113
	call	_ZN7testing7MessageD1Ev	#
.L58:
	.loc 6 21 0 discriminator 13
	lea	rax, -96[rbp]	# tmp114,
	mov	rdi, rax	#, tmp114
	call	_ZN7testing15AssertionResultD1Ev	#
.LBE24:
.LBE23:
.LBE22:
	.loc 6 22 0 is_stmt 1 discriminator 13
	jmp	.L71	#
.L65:
	.loc 6 18 0
	mov	rdi, rax	#, _21
	call	__cxa_begin_catch@PLT	#
	nop
.LEHB22:
	call	__cxa_end_catch@PLT	#
	jmp	.L56	#
.L67:
	mov	rbx, rax	# tmp118,
	lea	rax, -48[rbp]	# tmp116,
	mov	rdi, rax	#, tmp116
	call	_ZN7testing8internal12AssertHelperD1Ev@PLT	#
	jmp	.L61	#
.L66:
	mov	rbx, rax	# tmp117,
.L61:
	.loc 6 18 0 is_stmt 0 discriminator 8
	lea	rax, -56[rbp]	# tmp121,
	mov	rdi, rax	#, tmp121
	call	_ZN7testing7MessageD1Ev	#
	mov	rax, rbx	# D.115961, tmp117
	mov	rdi, rax	#, D.115961
	call	_Unwind_Resume@PLT	#
.L70:
	mov	rbx, rax	# tmp124,
.LBB27:
.LBB26:
.LBB25:
	.loc 6 21 0 is_stmt 1
	lea	rax, -24[rbp]	# tmp122,
	mov	rdi, rax	#, tmp122
	call	_ZN7testing8internal12AssertHelperD1Ev@PLT	#
	jmp	.L63	#
.L69:
	mov	rbx, rax	# tmp123,
.L63:
	.loc 6 21 0 is_stmt 0 discriminator 9
	lea	rax, -32[rbp]	# tmp127,
	mov	rdi, rax	#, tmp127
	call	_ZN7testing7MessageD1Ev	#
	jmp	.L64	#
.L68:
	mov	rbx, rax	# tmp128,
.L64:
	.loc 6 21 0 discriminator 5
	lea	rax, -96[rbp]	# tmp130,
	mov	rdi, rax	#, tmp130
	call	_ZN7testing15AssertionResultD1Ev	#
	mov	rax, rbx	# D.115962, tmp128
	mov	rdi, rax	#, D.115962
	call	_Unwind_Resume@PLT	#
.LEHE22:
.L71:
.LBE25:
.LBE26:
.LBE27:
	.loc 6 22 0 is_stmt 1
	add	rsp, 104	#,
	pop	rbx	#
	pop	rbp	#
	.cfi_def_cfa 7, 8
	ret
	.cfi_endproc
.LFE4214:
	.section	.gcc_except_table
	.align 4
.LLSDA4214:
	.byte	0xff
	.byte	0x9b
	.uleb128 .LLSDATT4214-.LLSDATTD4214
.LLSDATTD4214:
	.byte	0x1
	.uleb128 .LLSDACSE4214-.LLSDACSB4214
.LLSDACSB4214:
	.uleb128 .LEHB13-.LFB4214
	.uleb128 .LEHE13-.LEHB13
	.uleb128 0
	.uleb128 0
	.uleb128 .LEHB14-.LFB4214
	.uleb128 .LEHE14-.LEHB14
	.uleb128 .L65-.LFB4214
	.uleb128 0x1
	.uleb128 .LEHB15-.LFB4214
	.uleb128 .LEHE15-.LEHB15
	.uleb128 0
	.uleb128 0
	.uleb128 .LEHB16-.LFB4214
	.uleb128 .LEHE16-.LEHB16
	.uleb128 .L66-.LFB4214
	.uleb128 0
	.uleb128 .LEHB17-.LFB4214
	.uleb128 .LEHE17-.LEHB17
	.uleb128 .L67-.LFB4214
	.uleb128 0
	.uleb128 .LEHB18-.LFB4214
	.uleb128 .LEHE18-.LEHB18
	.uleb128 0
	.uleb128 0
	.uleb128 .LEHB19-.LFB4214
	.uleb128 .LEHE19-.LEHB19
	.uleb128 .L68-.LFB4214
	.uleb128 0
	.uleb128 .LEHB20-.LFB4214
	.uleb128 .LEHE20-.LEHB20
	.uleb128 .L69-.LFB4214
	.uleb128 0
	.uleb128 .LEHB21-.LFB4214
	.uleb128 .LEHE21-.LEHB21
	.uleb128 .L70-.LFB4214
	.uleb128 0
	.uleb128 .LEHB22-.LFB4214
	.uleb128 .LEHE22-.LEHB22
	.uleb128 0
	.uleb128 0
.LLSDACSE4214:
	.byte	0x1
	.byte	0
	.align 4
	.long	0

.LLSDATT4214:
	.text
	.size	_ZN36BinarySearch_test_positives_odd_Test8TestBodyEv, .-_ZN36BinarySearch_test_positives_odd_Test8TestBodyEv
	.section	.text._ZN37BinarySearch_test_negatvies_even_TestC2Ev,"axG",@progbits,_ZN37BinarySearch_test_negatvies_even_TestC5Ev,comdat
	.align 2
	.weak	_ZN37BinarySearch_test_negatvies_even_TestC2Ev
	.type	_ZN37BinarySearch_test_negatvies_even_TestC2Ev, @function
_ZN37BinarySearch_test_negatvies_even_TestC2Ev:
.LFB4216:
	.loc 6 24 0
	.cfi_startproc
	push	rbp	#
	.cfi_def_cfa_offset 16
	.cfi_offset 6, -16
	mov	rbp, rsp	#,
	.cfi_def_cfa_register 6
	sub	rsp, 16	#,
	mov	QWORD PTR -8[rbp], rdi	# this, this
.LBB28:
	.loc 6 24 0
	mov	rax, QWORD PTR -8[rbp]	# _4, this
	mov	rdi, rax	#, _4
	call	_ZN7testing4TestC2Ev@PLT	#
	lea	rdx, _ZTV37BinarySearch_test_negatvies_even_Test[rip+16]	# _6,
	mov	rax, QWORD PTR -8[rbp]	# tmp89, this
	mov	QWORD PTR [rax], rdx	# this_2(D)->D.105624._vptr.Test, _6
.LBE28:
	nop
	leave
	.cfi_def_cfa 7, 8
	ret
	.cfi_endproc
.LFE4216:
	.size	_ZN37BinarySearch_test_negatvies_even_TestC2Ev, .-_ZN37BinarySearch_test_negatvies_even_TestC2Ev
	.weak	_ZN37BinarySearch_test_negatvies_even_TestC1Ev
	.set	_ZN37BinarySearch_test_negatvies_even_TestC1Ev,_ZN37BinarySearch_test_negatvies_even_TestC2Ev
	.section	.text._ZN7testing8internal15TestFactoryImplI37BinarySearch_test_negatvies_even_TestEC2Ev,"axG",@progbits,_ZN7testing8internal15TestFactoryImplI37BinarySearch_test_negatvies_even_TestEC5Ev,comdat
	.align 2
	.weak	_ZN7testing8internal15TestFactoryImplI37BinarySearch_test_negatvies_even_TestEC2Ev
	.type	_ZN7testing8internal15TestFactoryImplI37BinarySearch_test_negatvies_even_TestEC2Ev, @function
_ZN7testing8internal15TestFactoryImplI37BinarySearch_test_negatvies_even_TestEC2Ev:
.LFB4219:
	.loc 3 504 0
	.cfi_startproc
	push	rbp	#
	.cfi_def_cfa_offset 16
	.cfi_offset 6, -16
	mov	rbp, rsp	#,
	.cfi_def_cfa_register 6
	sub	rsp, 16	#,
	mov	QWORD PTR -8[rbp], rdi	# this, this
.LBB29:
	.loc 3 504 0
	mov	rax, QWORD PTR -8[rbp]	# _2, this
	mov	rdi, rax	#, _2
	call	_ZN7testing8internal15TestFactoryBaseC2Ev	#
	lea	rdx, _ZTVN7testing8internal15TestFactoryImplI37BinarySearch_test_negatvies_even_TestEE[rip+16]	# _5,
	mov	rax, QWORD PTR -8[rbp]	# tmp89, this
	mov	QWORD PTR [rax], rdx	# this_1(D)->D.105652._vptr.TestFactoryBase, _5
.LBE29:
	nop
	leave
	.cfi_def_cfa 7, 8
	ret
	.cfi_endproc
.LFE4219:
	.size	_ZN7testing8internal15TestFactoryImplI37BinarySearch_test_negatvies_even_TestEC2Ev, .-_ZN7testing8internal15TestFactoryImplI37BinarySearch_test_negatvies_even_TestEC2Ev
	.weak	_ZN7testing8internal15TestFactoryImplI37BinarySearch_test_negatvies_even_TestEC1Ev
	.set	_ZN7testing8internal15TestFactoryImplI37BinarySearch_test_negatvies_even_TestEC1Ev,_ZN7testing8internal15TestFactoryImplI37BinarySearch_test_negatvies_even_TestEC2Ev
	.globl	_ZN37BinarySearch_test_negatvies_even_Test10test_info_E
	.bss
	.align 8
	.type	_ZN37BinarySearch_test_negatvies_even_Test10test_info_E, @object
	.size	_ZN37BinarySearch_test_negatvies_even_Test10test_info_E, 8
_ZN37BinarySearch_test_negatvies_even_Test10test_info_E:
	.zero	8
	.section	.rodata
	.align 8
.LC7:
	.string	"Expected: search(arr, 6, -20); doesn't throw an exception.\n  Actual: it throws."
.LC8:
	.string	"2"
	.text
	.align 2
	.globl	_ZN37BinarySearch_test_negatvies_even_Test8TestBodyEv
	.type	_ZN37BinarySearch_test_negatvies_even_Test8TestBodyEv, @function
_ZN37BinarySearch_test_negatvies_even_Test8TestBodyEv:
.LFB4221:
	.loc 6 25 0
	.cfi_startproc
	.cfi_personality 0x9b,DW.ref.__gxx_personality_v0
	.cfi_lsda 0x1b,.LLSDA4221
	push	rbp	#
	.cfi_def_cfa_offset 16
	.cfi_offset 6, -16
	mov	rbp, rsp	#,
	.cfi_def_cfa_register 6
	push	rbx	#
	sub	rsp, 120	#,
	.cfi_offset 3, -24
	mov	QWORD PTR -120[rbp], rdi	# this, this
	.loc 6 26 0
	mov	DWORD PTR -80[rbp], -50	# arr,
	mov	DWORD PTR -76[rbp], -30	# arr,
	mov	DWORD PTR -72[rbp], -20	# arr,
	mov	DWORD PTR -68[rbp], -10	# arr,
	mov	DWORD PTR -64[rbp], -5	# arr,
	mov	DWORD PTR -60[rbp], -1	# arr,
.LEHB23:
	.loc 6 28 0
	call	_ZN7testing8internal10AlwaysTrueEv@PLT	#
.LEHE23:
	test	al, al	# _18
	je	.L75	#,
.LEHB24:
	.loc 6 28 0 is_stmt 0 discriminator 3
	call	_ZN7testing8internal10AlwaysTrueEv@PLT	#
	test	al, al	# _21
	je	.L76	#,
	.loc 6 28 0 discriminator 6
	lea	rax, -80[rbp]	# tmp95,
	mov	edx, -20	#,
	mov	esi, 6	#,
	mov	rdi, rax	#, tmp95
	call	_Z6searchIiEmPT_mS0_	#
.LEHE24:
	jmp	.L76	#
.L75:
	.loc 6 28 0 discriminator 4
	lea	rax, -56[rbp]	# tmp96,
	mov	rdi, rax	#, tmp96
.LEHB25:
	call	_ZN7testing7MessageC1Ev@PLT	#
.LEHE25:
	lea	rax, -48[rbp]	# tmp97,
	lea	r8, .LC7[rip]	#,
	mov	ecx, 28	#,
	lea	rdx, .LC3[rip]	#,
	mov	esi, 1	#,
	mov	rdi, rax	#, tmp97
.LEHB26:
	call	_ZN7testing8internal12AssertHelperC1ENS_14TestPartResult4TypeEPKciS5_@PLT	#
.LEHE26:
	.loc 6 28 0 discriminator 9
	lea	rdx, -56[rbp]	# tmp98,
	lea	rax, -48[rbp]	# tmp99,
	mov	rsi, rdx	#, tmp98
	mov	rdi, rax	#, tmp99
.LEHB27:
	call	_ZNK7testing8internal12AssertHelperaSERKNS_7MessageE@PLT	#
.LEHE27:
	.loc 6 28 0 discriminator 11
	lea	rax, -48[rbp]	# tmp100,
	mov	rdi, rax	#, tmp100
	call	_ZN7testing8internal12AssertHelperD1Ev@PLT	#
	lea	rax, -56[rbp]	# tmp101,
	mov	rdi, rax	#, tmp101
	call	_ZN7testing7MessageD1Ev	#
.L76:
	.loc 6 29 0 is_stmt 1
	lea	rax, -80[rbp]	# tmp102,
	mov	edx, -20	#,
	mov	esi, 6	#,
	mov	rdi, rax	#, tmp102
.LEHB28:
	call	_Z6searchIiEmPT_mS0_	#
	mov	QWORD PTR -88[rbp], rax	# result, _39
.LBB30:
.LBB31:
.LBB32:
	.loc 6 31 0
	mov	DWORD PTR -36[rbp], 2	# D.105697,
	lea	rax, -112[rbp]	# tmp103,
	lea	rcx, -36[rbp]	# tmp104,
	lea	rdx, -88[rbp]	# tmp105,
	mov	r8, rcx	#, tmp104
	mov	rcx, rdx	#, tmp105
	lea	rdx, .LC8[rip]	#,
	lea	rsi, .LC5[rip]	#,
	mov	rdi, rax	#, tmp103
	call	_ZN7testing8internal8EqHelperILb0EE7CompareImiEENS_15AssertionResultEPKcS6_RKT_RKT0_	#
.LEHE28:
	lea	rax, -112[rbp]	# tmp106,
	mov	rdi, rax	#, tmp106
	call	_ZNK7testing15AssertionResultcvbEv	#
	test	al, al	# retval.14_46
	jne	.L77	#,
	.loc 6 31 0 is_stmt 0 discriminator 4
	lea	rax, -32[rbp]	# tmp107,
	mov	rdi, rax	#, tmp107
.LEHB29:
	call	_ZN7testing7MessageC1Ev@PLT	#
.LEHE29:
	.loc 6 31 0 discriminator 6
	lea	rax, -112[rbp]	# tmp108,
	mov	rdi, rax	#, tmp108
	call	_ZNK7testing15AssertionResult15failure_messageEv	#
	mov	rdx, rax	# _49,
	lea	rax, -24[rbp]	# tmp109,
	mov	r8, rdx	#, _49
	mov	ecx, 31	#,
	lea	rdx, .LC3[rip]	#,
	mov	esi, 1	#,
	mov	rdi, rax	#, tmp109
.LEHB30:
	call	_ZN7testing8internal12AssertHelperC1ENS_14TestPartResult4TypeEPKciS5_@PLT	#
.LEHE30:
	.loc 6 31 0 discriminator 10
	lea	rdx, -32[rbp]	# tmp110,
	lea	rax, -24[rbp]	# tmp111,
	mov	rsi, rdx	#, tmp110
	mov	rdi, rax	#, tmp111
.LEHB31:
	call	_ZNK7testing8internal12AssertHelperaSERKNS_7MessageE@PLT	#
.LEHE31:
	.loc 6 31 0 discriminator 12
	lea	rax, -24[rbp]	# tmp112,
	mov	rdi, rax	#, tmp112
	call	_ZN7testing8internal12AssertHelperD1Ev@PLT	#
	lea	rax, -32[rbp]	# tmp113,
	mov	rdi, rax	#, tmp113
	call	_ZN7testing7MessageD1Ev	#
.L77:
	.loc 6 31 0 discriminator 13
	lea	rax, -112[rbp]	# tmp114,
	mov	rdi, rax	#, tmp114
	call	_ZN7testing15AssertionResultD1Ev	#
.LBE32:
.LBE31:
.LBE30:
	.loc 6 32 0 is_stmt 1 discriminator 13
	jmp	.L90	#
.L84:
	.loc 6 28 0
	mov	rdi, rax	#, _24
	call	__cxa_begin_catch@PLT	#
	nop
.LEHB32:
	call	__cxa_end_catch@PLT	#
	jmp	.L75	#
.L86:
	mov	rbx, rax	# tmp118,
	lea	rax, -48[rbp]	# tmp116,
	mov	rdi, rax	#, tmp116
	call	_ZN7testing8internal12AssertHelperD1Ev@PLT	#
	jmp	.L80	#
.L85:
	mov	rbx, rax	# tmp117,
.L80:
	.loc 6 28 0 is_stmt 0 discriminator 8
	lea	rax, -56[rbp]	# tmp121,
	mov	rdi, rax	#, tmp121
	call	_ZN7testing7MessageD1Ev	#
	mov	rax, rbx	# D.115965, tmp117
	mov	rdi, rax	#, D.115965
	call	_Unwind_Resume@PLT	#
.L89:
	mov	rbx, rax	# tmp124,
.LBB35:
.LBB34:
.LBB33:
	.loc 6 31 0 is_stmt 1
	lea	rax, -24[rbp]	# tmp122,
	mov	rdi, rax	#, tmp122
	call	_ZN7testing8internal12AssertHelperD1Ev@PLT	#
	jmp	.L82	#
.L88:
	mov	rbx, rax	# tmp123,
.L82:
	.loc 6 31 0 is_stmt 0 discriminator 9
	lea	rax, -32[rbp]	# tmp127,
	mov	rdi, rax	#, tmp127
	call	_ZN7testing7MessageD1Ev	#
	jmp	.L83	#
.L87:
	mov	rbx, rax	# tmp128,
.L83:
	.loc 6 31 0 discriminator 5
	lea	rax, -112[rbp]	# tmp130,
	mov	rdi, rax	#, tmp130
	call	_ZN7testing15AssertionResultD1Ev	#
	mov	rax, rbx	# D.115966, tmp128
	mov	rdi, rax	#, D.115966
	call	_Unwind_Resume@PLT	#
.LEHE32:
.L90:
.LBE33:
.LBE34:
.LBE35:
	.loc 6 32 0 is_stmt 1
	add	rsp, 120	#,
	pop	rbx	#
	pop	rbp	#
	.cfi_def_cfa 7, 8
	ret
	.cfi_endproc
.LFE4221:
	.section	.gcc_except_table
	.align 4
.LLSDA4221:
	.byte	0xff
	.byte	0x9b
	.uleb128 .LLSDATT4221-.LLSDATTD4221
.LLSDATTD4221:
	.byte	0x1
	.uleb128 .LLSDACSE4221-.LLSDACSB4221
.LLSDACSB4221:
	.uleb128 .LEHB23-.LFB4221
	.uleb128 .LEHE23-.LEHB23
	.uleb128 0
	.uleb128 0
	.uleb128 .LEHB24-.LFB4221
	.uleb128 .LEHE24-.LEHB24
	.uleb128 .L84-.LFB4221
	.uleb128 0x1
	.uleb128 .LEHB25-.LFB4221
	.uleb128 .LEHE25-.LEHB25
	.uleb128 0
	.uleb128 0
	.uleb128 .LEHB26-.LFB4221
	.uleb128 .LEHE26-.LEHB26
	.uleb128 .L85-.LFB4221
	.uleb128 0
	.uleb128 .LEHB27-.LFB4221
	.uleb128 .LEHE27-.LEHB27
	.uleb128 .L86-.LFB4221
	.uleb128 0
	.uleb128 .LEHB28-.LFB4221
	.uleb128 .LEHE28-.LEHB28
	.uleb128 0
	.uleb128 0
	.uleb128 .LEHB29-.LFB4221
	.uleb128 .LEHE29-.LEHB29
	.uleb128 .L87-.LFB4221
	.uleb128 0
	.uleb128 .LEHB30-.LFB4221
	.uleb128 .LEHE30-.LEHB30
	.uleb128 .L88-.LFB4221
	.uleb128 0
	.uleb128 .LEHB31-.LFB4221
	.uleb128 .LEHE31-.LEHB31
	.uleb128 .L89-.LFB4221
	.uleb128 0
	.uleb128 .LEHB32-.LFB4221
	.uleb128 .LEHE32-.LEHB32
	.uleb128 0
	.uleb128 0
.LLSDACSE4221:
	.byte	0x1
	.byte	0
	.align 4
	.long	0

.LLSDATT4221:
	.text
	.size	_ZN37BinarySearch_test_negatvies_even_Test8TestBodyEv, .-_ZN37BinarySearch_test_negatvies_even_Test8TestBodyEv
	.section	.text._ZN36BinarySearch_test_negatvies_odd_TestC2Ev,"axG",@progbits,_ZN36BinarySearch_test_negatvies_odd_TestC5Ev,comdat
	.align 2
	.weak	_ZN36BinarySearch_test_negatvies_odd_TestC2Ev
	.type	_ZN36BinarySearch_test_negatvies_odd_TestC2Ev, @function
_ZN36BinarySearch_test_negatvies_odd_TestC2Ev:
.LFB4223:
	.loc 6 34 0
	.cfi_startproc
	push	rbp	#
	.cfi_def_cfa_offset 16
	.cfi_offset 6, -16
	mov	rbp, rsp	#,
	.cfi_def_cfa_register 6
	sub	rsp, 16	#,
	mov	QWORD PTR -8[rbp], rdi	# this, this
.LBB36:
	.loc 6 34 0
	mov	rax, QWORD PTR -8[rbp]	# _4, this
	mov	rdi, rax	#, _4
	call	_ZN7testing4TestC2Ev@PLT	#
	lea	rdx, _ZTV36BinarySearch_test_negatvies_odd_Test[rip+16]	# _6,
	mov	rax, QWORD PTR -8[rbp]	# tmp89, this
	mov	QWORD PTR [rax], rdx	# this_2(D)->D.105738._vptr.Test, _6
.LBE36:
	nop
	leave
	.cfi_def_cfa 7, 8
	ret
	.cfi_endproc
.LFE4223:
	.size	_ZN36BinarySearch_test_negatvies_odd_TestC2Ev, .-_ZN36BinarySearch_test_negatvies_odd_TestC2Ev
	.weak	_ZN36BinarySearch_test_negatvies_odd_TestC1Ev
	.set	_ZN36BinarySearch_test_negatvies_odd_TestC1Ev,_ZN36BinarySearch_test_negatvies_odd_TestC2Ev
	.section	.text._ZN7testing8internal15TestFactoryImplI36BinarySearch_test_negatvies_odd_TestEC2Ev,"axG",@progbits,_ZN7testing8internal15TestFactoryImplI36BinarySearch_test_negatvies_odd_TestEC5Ev,comdat
	.align 2
	.weak	_ZN7testing8internal15TestFactoryImplI36BinarySearch_test_negatvies_odd_TestEC2Ev
	.type	_ZN7testing8internal15TestFactoryImplI36BinarySearch_test_negatvies_odd_TestEC2Ev, @function
_ZN7testing8internal15TestFactoryImplI36BinarySearch_test_negatvies_odd_TestEC2Ev:
.LFB4226:
	.loc 3 504 0
	.cfi_startproc
	push	rbp	#
	.cfi_def_cfa_offset 16
	.cfi_offset 6, -16
	mov	rbp, rsp	#,
	.cfi_def_cfa_register 6
	sub	rsp, 16	#,
	mov	QWORD PTR -8[rbp], rdi	# this, this
.LBB37:
	.loc 3 504 0
	mov	rax, QWORD PTR -8[rbp]	# _2, this
	mov	rdi, rax	#, _2
	call	_ZN7testing8internal15TestFactoryBaseC2Ev	#
	lea	rdx, _ZTVN7testing8internal15TestFactoryImplI36BinarySearch_test_negatvies_odd_TestEE[rip+16]	# _5,
	mov	rax, QWORD PTR -8[rbp]	# tmp89, this
	mov	QWORD PTR [rax], rdx	# this_1(D)->D.105766._vptr.TestFactoryBase, _5
.LBE37:
	nop
	leave
	.cfi_def_cfa 7, 8
	ret
	.cfi_endproc
.LFE4226:
	.size	_ZN7testing8internal15TestFactoryImplI36BinarySearch_test_negatvies_odd_TestEC2Ev, .-_ZN7testing8internal15TestFactoryImplI36BinarySearch_test_negatvies_odd_TestEC2Ev
	.weak	_ZN7testing8internal15TestFactoryImplI36BinarySearch_test_negatvies_odd_TestEC1Ev
	.set	_ZN7testing8internal15TestFactoryImplI36BinarySearch_test_negatvies_odd_TestEC1Ev,_ZN7testing8internal15TestFactoryImplI36BinarySearch_test_negatvies_odd_TestEC2Ev
	.globl	_ZN36BinarySearch_test_negatvies_odd_Test10test_info_E
	.bss
	.align 8
	.type	_ZN36BinarySearch_test_negatvies_odd_Test10test_info_E, @object
	.size	_ZN36BinarySearch_test_negatvies_odd_Test10test_info_E, 8
_ZN36BinarySearch_test_negatvies_odd_Test10test_info_E:
	.zero	8
	.section	.rodata
	.align 8
.LC9:
	.string	"Expected: search(arr, 5, -1); doesn't throw an exception.\n  Actual: it throws."
.LC10:
	.string	"4"
	.text
	.align 2
	.globl	_ZN36BinarySearch_test_negatvies_odd_Test8TestBodyEv
	.type	_ZN36BinarySearch_test_negatvies_odd_Test8TestBodyEv, @function
_ZN36BinarySearch_test_negatvies_odd_Test8TestBodyEv:
.LFB4228:
	.loc 6 35 0
	.cfi_startproc
	.cfi_personality 0x9b,DW.ref.__gxx_personality_v0
	.cfi_lsda 0x1b,.LLSDA4228
	push	rbp	#
	.cfi_def_cfa_offset 16
	.cfi_offset 6, -16
	mov	rbp, rsp	#,
	.cfi_def_cfa_register 6
	push	rbx	#
	sub	rsp, 120	#,
	.cfi_offset 3, -24
	mov	QWORD PTR -120[rbp], rdi	# this, this
	.loc 6 36 0
	mov	DWORD PTR -80[rbp], -50	# arr,
	mov	DWORD PTR -76[rbp], -30	# arr,
	mov	DWORD PTR -72[rbp], -10	# arr,
	mov	DWORD PTR -68[rbp], -5	# arr,
	mov	DWORD PTR -64[rbp], -1	# arr,
.LEHB33:
	.loc 6 38 0
	call	_ZN7testing8internal10AlwaysTrueEv@PLT	#
.LEHE33:
	test	al, al	# _17
	je	.L94	#,
.LEHB34:
	.loc 6 38 0 is_stmt 0 discriminator 3
	call	_ZN7testing8internal10AlwaysTrueEv@PLT	#
	test	al, al	# _20
	je	.L95	#,
	.loc 6 38 0 discriminator 6
	lea	rax, -80[rbp]	# tmp95,
	mov	edx, -1	#,
	mov	esi, 5	#,
	mov	rdi, rax	#, tmp95
	call	_Z6searchIiEmPT_mS0_	#
.LEHE34:
	jmp	.L95	#
.L94:
	.loc 6 38 0 discriminator 4
	lea	rax, -56[rbp]	# tmp96,
	mov	rdi, rax	#, tmp96
.LEHB35:
	call	_ZN7testing7MessageC1Ev@PLT	#
.LEHE35:
	lea	rax, -48[rbp]	# tmp97,
	lea	r8, .LC9[rip]	#,
	mov	ecx, 38	#,
	lea	rdx, .LC3[rip]	#,
	mov	esi, 1	#,
	mov	rdi, rax	#, tmp97
.LEHB36:
	call	_ZN7testing8internal12AssertHelperC1ENS_14TestPartResult4TypeEPKciS5_@PLT	#
.LEHE36:
	.loc 6 38 0 discriminator 9
	lea	rdx, -56[rbp]	# tmp98,
	lea	rax, -48[rbp]	# tmp99,
	mov	rsi, rdx	#, tmp98
	mov	rdi, rax	#, tmp99
.LEHB37:
	call	_ZNK7testing8internal12AssertHelperaSERKNS_7MessageE@PLT	#
.LEHE37:
	.loc 6 38 0 discriminator 11
	lea	rax, -48[rbp]	# tmp100,
	mov	rdi, rax	#, tmp100
	call	_ZN7testing8internal12AssertHelperD1Ev@PLT	#
	lea	rax, -56[rbp]	# tmp101,
	mov	rdi, rax	#, tmp101
	call	_ZN7testing7MessageD1Ev	#
.L95:
	.loc 6 39 0 is_stmt 1
	lea	rax, -80[rbp]	# tmp102,
	mov	edx, -1	#,
	mov	esi, 5	#,
	mov	rdi, rax	#, tmp102
.LEHB38:
	call	_Z6searchIiEmPT_mS0_	#
	mov	QWORD PTR -88[rbp], rax	# result, _38
.LBB38:
.LBB39:
.LBB40:
	.loc 6 41 0
	mov	DWORD PTR -36[rbp], 4	# D.105811,
	lea	rax, -112[rbp]	# tmp103,
	lea	rcx, -36[rbp]	# tmp104,
	lea	rdx, -88[rbp]	# tmp105,
	mov	r8, rcx	#, tmp104
	mov	rcx, rdx	#, tmp105
	lea	rdx, .LC10[rip]	#,
	lea	rsi, .LC5[rip]	#,
	mov	rdi, rax	#, tmp103
	call	_ZN7testing8internal8EqHelperILb0EE7CompareImiEENS_15AssertionResultEPKcS6_RKT_RKT0_	#
.LEHE38:
	lea	rax, -112[rbp]	# tmp106,
	mov	rdi, rax	#, tmp106
	call	_ZNK7testing15AssertionResultcvbEv	#
	test	al, al	# retval.18_45
	jne	.L96	#,
	.loc 6 41 0 is_stmt 0 discriminator 4
	lea	rax, -32[rbp]	# tmp107,
	mov	rdi, rax	#, tmp107
.LEHB39:
	call	_ZN7testing7MessageC1Ev@PLT	#
.LEHE39:
	.loc 6 41 0 discriminator 6
	lea	rax, -112[rbp]	# tmp108,
	mov	rdi, rax	#, tmp108
	call	_ZNK7testing15AssertionResult15failure_messageEv	#
	mov	rdx, rax	# _48,
	lea	rax, -24[rbp]	# tmp109,
	mov	r8, rdx	#, _48
	mov	ecx, 41	#,
	lea	rdx, .LC3[rip]	#,
	mov	esi, 1	#,
	mov	rdi, rax	#, tmp109
.LEHB40:
	call	_ZN7testing8internal12AssertHelperC1ENS_14TestPartResult4TypeEPKciS5_@PLT	#
.LEHE40:
	.loc 6 41 0 discriminator 10
	lea	rdx, -32[rbp]	# tmp110,
	lea	rax, -24[rbp]	# tmp111,
	mov	rsi, rdx	#, tmp110
	mov	rdi, rax	#, tmp111
.LEHB41:
	call	_ZNK7testing8internal12AssertHelperaSERKNS_7MessageE@PLT	#
.LEHE41:
	.loc 6 41 0 discriminator 12
	lea	rax, -24[rbp]	# tmp112,
	mov	rdi, rax	#, tmp112
	call	_ZN7testing8internal12AssertHelperD1Ev@PLT	#
	lea	rax, -32[rbp]	# tmp113,
	mov	rdi, rax	#, tmp113
	call	_ZN7testing7MessageD1Ev	#
.L96:
	.loc 6 41 0 discriminator 13
	lea	rax, -112[rbp]	# tmp114,
	mov	rdi, rax	#, tmp114
	call	_ZN7testing15AssertionResultD1Ev	#
.LBE40:
.LBE39:
.LBE38:
	.loc 6 42 0 is_stmt 1 discriminator 13
	jmp	.L109	#
.L103:
	.loc 6 38 0
	mov	rdi, rax	#, _23
	call	__cxa_begin_catch@PLT	#
	nop
.LEHB42:
	call	__cxa_end_catch@PLT	#
	jmp	.L94	#
.L105:
	mov	rbx, rax	# tmp118,
	lea	rax, -48[rbp]	# tmp116,
	mov	rdi, rax	#, tmp116
	call	_ZN7testing8internal12AssertHelperD1Ev@PLT	#
	jmp	.L99	#
.L104:
	mov	rbx, rax	# tmp117,
.L99:
	.loc 6 38 0 is_stmt 0 discriminator 8
	lea	rax, -56[rbp]	# tmp121,
	mov	rdi, rax	#, tmp121
	call	_ZN7testing7MessageD1Ev	#
	mov	rax, rbx	# D.115970, tmp117
	mov	rdi, rax	#, D.115970
	call	_Unwind_Resume@PLT	#
.L108:
	mov	rbx, rax	# tmp124,
.LBB43:
.LBB42:
.LBB41:
	.loc 6 41 0 is_stmt 1
	lea	rax, -24[rbp]	# tmp122,
	mov	rdi, rax	#, tmp122
	call	_ZN7testing8internal12AssertHelperD1Ev@PLT	#
	jmp	.L101	#
.L107:
	mov	rbx, rax	# tmp123,
.L101:
	.loc 6 41 0 is_stmt 0 discriminator 9
	lea	rax, -32[rbp]	# tmp127,
	mov	rdi, rax	#, tmp127
	call	_ZN7testing7MessageD1Ev	#
	jmp	.L102	#
.L106:
	mov	rbx, rax	# tmp128,
.L102:
	.loc 6 41 0 discriminator 5
	lea	rax, -112[rbp]	# tmp130,
	mov	rdi, rax	#, tmp130
	call	_ZN7testing15AssertionResultD1Ev	#
	mov	rax, rbx	# D.115971, tmp128
	mov	rdi, rax	#, D.115971
	call	_Unwind_Resume@PLT	#
.LEHE42:
.L109:
.LBE41:
.LBE42:
.LBE43:
	.loc 6 42 0 is_stmt 1
	add	rsp, 120	#,
	pop	rbx	#
	pop	rbp	#
	.cfi_def_cfa 7, 8
	ret
	.cfi_endproc
.LFE4228:
	.section	.gcc_except_table
	.align 4
.LLSDA4228:
	.byte	0xff
	.byte	0x9b
	.uleb128 .LLSDATT4228-.LLSDATTD4228
.LLSDATTD4228:
	.byte	0x1
	.uleb128 .LLSDACSE4228-.LLSDACSB4228
.LLSDACSB4228:
	.uleb128 .LEHB33-.LFB4228
	.uleb128 .LEHE33-.LEHB33
	.uleb128 0
	.uleb128 0
	.uleb128 .LEHB34-.LFB4228
	.uleb128 .LEHE34-.LEHB34
	.uleb128 .L103-.LFB4228
	.uleb128 0x1
	.uleb128 .LEHB35-.LFB4228
	.uleb128 .LEHE35-.LEHB35
	.uleb128 0
	.uleb128 0
	.uleb128 .LEHB36-.LFB4228
	.uleb128 .LEHE36-.LEHB36
	.uleb128 .L104-.LFB4228
	.uleb128 0
	.uleb128 .LEHB37-.LFB4228
	.uleb128 .LEHE37-.LEHB37
	.uleb128 .L105-.LFB4228
	.uleb128 0
	.uleb128 .LEHB38-.LFB4228
	.uleb128 .LEHE38-.LEHB38
	.uleb128 0
	.uleb128 0
	.uleb128 .LEHB39-.LFB4228
	.uleb128 .LEHE39-.LEHB39
	.uleb128 .L106-.LFB4228
	.uleb128 0
	.uleb128 .LEHB40-.LFB4228
	.uleb128 .LEHE40-.LEHB40
	.uleb128 .L107-.LFB4228
	.uleb128 0
	.uleb128 .LEHB41-.LFB4228
	.uleb128 .LEHE41-.LEHB41
	.uleb128 .L108-.LFB4228
	.uleb128 0
	.uleb128 .LEHB42-.LFB4228
	.uleb128 .LEHE42-.LEHB42
	.uleb128 0
	.uleb128 0
.LLSDACSE4228:
	.byte	0x1
	.byte	0
	.align 4
	.long	0

.LLSDATT4228:
	.text
	.size	_ZN36BinarySearch_test_negatvies_odd_Test8TestBodyEv, .-_ZN36BinarySearch_test_negatvies_odd_Test8TestBodyEv
	.section	.text._ZN32BinarySearch_test_mixed_odd_TestC2Ev,"axG",@progbits,_ZN32BinarySearch_test_mixed_odd_TestC5Ev,comdat
	.align 2
	.weak	_ZN32BinarySearch_test_mixed_odd_TestC2Ev
	.type	_ZN32BinarySearch_test_mixed_odd_TestC2Ev, @function
_ZN32BinarySearch_test_mixed_odd_TestC2Ev:
.LFB4230:
	.loc 6 44 0
	.cfi_startproc
	push	rbp	#
	.cfi_def_cfa_offset 16
	.cfi_offset 6, -16
	mov	rbp, rsp	#,
	.cfi_def_cfa_register 6
	sub	rsp, 16	#,
	mov	QWORD PTR -8[rbp], rdi	# this, this
.LBB44:
	.loc 6 44 0
	mov	rax, QWORD PTR -8[rbp]	# _4, this
	mov	rdi, rax	#, _4
	call	_ZN7testing4TestC2Ev@PLT	#
	lea	rdx, _ZTV32BinarySearch_test_mixed_odd_Test[rip+16]	# _6,
	mov	rax, QWORD PTR -8[rbp]	# tmp89, this
	mov	QWORD PTR [rax], rdx	# this_2(D)->D.105852._vptr.Test, _6
.LBE44:
	nop
	leave
	.cfi_def_cfa 7, 8
	ret
	.cfi_endproc
.LFE4230:
	.size	_ZN32BinarySearch_test_mixed_odd_TestC2Ev, .-_ZN32BinarySearch_test_mixed_odd_TestC2Ev
	.weak	_ZN32BinarySearch_test_mixed_odd_TestC1Ev
	.set	_ZN32BinarySearch_test_mixed_odd_TestC1Ev,_ZN32BinarySearch_test_mixed_odd_TestC2Ev
	.section	.text._ZN7testing8internal15TestFactoryImplI32BinarySearch_test_mixed_odd_TestEC2Ev,"axG",@progbits,_ZN7testing8internal15TestFactoryImplI32BinarySearch_test_mixed_odd_TestEC5Ev,comdat
	.align 2
	.weak	_ZN7testing8internal15TestFactoryImplI32BinarySearch_test_mixed_odd_TestEC2Ev
	.type	_ZN7testing8internal15TestFactoryImplI32BinarySearch_test_mixed_odd_TestEC2Ev, @function
_ZN7testing8internal15TestFactoryImplI32BinarySearch_test_mixed_odd_TestEC2Ev:
.LFB4233:
	.loc 3 504 0
	.cfi_startproc
	push	rbp	#
	.cfi_def_cfa_offset 16
	.cfi_offset 6, -16
	mov	rbp, rsp	#,
	.cfi_def_cfa_register 6
	sub	rsp, 16	#,
	mov	QWORD PTR -8[rbp], rdi	# this, this
.LBB45:
	.loc 3 504 0
	mov	rax, QWORD PTR -8[rbp]	# _2, this
	mov	rdi, rax	#, _2
	call	_ZN7testing8internal15TestFactoryBaseC2Ev	#
	lea	rdx, _ZTVN7testing8internal15TestFactoryImplI32BinarySearch_test_mixed_odd_TestEE[rip+16]	# _5,
	mov	rax, QWORD PTR -8[rbp]	# tmp89, this
	mov	QWORD PTR [rax], rdx	# this_1(D)->D.105880._vptr.TestFactoryBase, _5
.LBE45:
	nop
	leave
	.cfi_def_cfa 7, 8
	ret
	.cfi_endproc
.LFE4233:
	.size	_ZN7testing8internal15TestFactoryImplI32BinarySearch_test_mixed_odd_TestEC2Ev, .-_ZN7testing8internal15TestFactoryImplI32BinarySearch_test_mixed_odd_TestEC2Ev
	.weak	_ZN7testing8internal15TestFactoryImplI32BinarySearch_test_mixed_odd_TestEC1Ev
	.set	_ZN7testing8internal15TestFactoryImplI32BinarySearch_test_mixed_odd_TestEC1Ev,_ZN7testing8internal15TestFactoryImplI32BinarySearch_test_mixed_odd_TestEC2Ev
	.globl	_ZN32BinarySearch_test_mixed_odd_Test10test_info_E
	.bss
	.align 8
	.type	_ZN32BinarySearch_test_mixed_odd_Test10test_info_E, @object
	.size	_ZN32BinarySearch_test_mixed_odd_Test10test_info_E, 8
_ZN32BinarySearch_test_mixed_odd_Test10test_info_E:
	.zero	8
	.section	.rodata
	.align 8
.LC11:
	.string	"Expected: search(arr, 4, 7); doesn't throw an exception.\n  Actual: it throws."
.LC12:
	.string	"3"
	.text
	.align 2
	.globl	_ZN32BinarySearch_test_mixed_odd_Test8TestBodyEv
	.type	_ZN32BinarySearch_test_mixed_odd_Test8TestBodyEv, @function
_ZN32BinarySearch_test_mixed_odd_Test8TestBodyEv:
.LFB4235:
	.loc 6 45 0
	.cfi_startproc
	.cfi_personality 0x9b,DW.ref.__gxx_personality_v0
	.cfi_lsda 0x1b,.LLSDA4235
	push	rbp	#
	.cfi_def_cfa_offset 16
	.cfi_offset 6, -16
	mov	rbp, rsp	#,
	.cfi_def_cfa_register 6
	push	rbx	#
	sub	rsp, 120	#,
	.cfi_offset 3, -24
	mov	QWORD PTR -120[rbp], rdi	# this, this
	.loc 6 46 0
	mov	DWORD PTR -80[rbp], -1	# arr,
	mov	DWORD PTR -76[rbp], 0	# arr,
	mov	DWORD PTR -72[rbp], 5	# arr,
	mov	DWORD PTR -68[rbp], 7	# arr,
.LEHB43:
	.loc 6 48 0
	call	_ZN7testing8internal10AlwaysTrueEv@PLT	#
.LEHE43:
	test	al, al	# _16
	je	.L113	#,
.LEHB44:
	.loc 6 48 0 is_stmt 0 discriminator 3
	call	_ZN7testing8internal10AlwaysTrueEv@PLT	#
	test	al, al	# _19
	je	.L114	#,
	.loc 6 48 0 discriminator 6
	lea	rax, -80[rbp]	# tmp95,
	mov	edx, 7	#,
	mov	esi, 4	#,
	mov	rdi, rax	#, tmp95
	call	_Z6searchIiEmPT_mS0_	#
.LEHE44:
	jmp	.L114	#
.L113:
	.loc 6 48 0 discriminator 4
	lea	rax, -56[rbp]	# tmp96,
	mov	rdi, rax	#, tmp96
.LEHB45:
	call	_ZN7testing7MessageC1Ev@PLT	#
.LEHE45:
	lea	rax, -48[rbp]	# tmp97,
	lea	r8, .LC11[rip]	#,
	mov	ecx, 48	#,
	lea	rdx, .LC3[rip]	#,
	mov	esi, 1	#,
	mov	rdi, rax	#, tmp97
.LEHB46:
	call	_ZN7testing8internal12AssertHelperC1ENS_14TestPartResult4TypeEPKciS5_@PLT	#
.LEHE46:
	.loc 6 48 0 discriminator 9
	lea	rdx, -56[rbp]	# tmp98,
	lea	rax, -48[rbp]	# tmp99,
	mov	rsi, rdx	#, tmp98
	mov	rdi, rax	#, tmp99
.LEHB47:
	call	_ZNK7testing8internal12AssertHelperaSERKNS_7MessageE@PLT	#
.LEHE47:
	.loc 6 48 0 discriminator 11
	lea	rax, -48[rbp]	# tmp100,
	mov	rdi, rax	#, tmp100
	call	_ZN7testing8internal12AssertHelperD1Ev@PLT	#
	lea	rax, -56[rbp]	# tmp101,
	mov	rdi, rax	#, tmp101
	call	_ZN7testing7MessageD1Ev	#
.L114:
	.loc 6 49 0 is_stmt 1
	lea	rax, -80[rbp]	# tmp102,
	mov	edx, 7	#,
	mov	esi, 4	#,
	mov	rdi, rax	#, tmp102
.LEHB48:
	call	_Z6searchIiEmPT_mS0_	#
	mov	QWORD PTR -88[rbp], rax	# result, _37
.LBB46:
.LBB47:
.LBB48:
	.loc 6 51 0
	mov	DWORD PTR -36[rbp], 3	# D.105925,
	lea	rax, -112[rbp]	# tmp103,
	lea	rcx, -36[rbp]	# tmp104,
	lea	rdx, -88[rbp]	# tmp105,
	mov	r8, rcx	#, tmp104
	mov	rcx, rdx	#, tmp105
	lea	rdx, .LC12[rip]	#,
	lea	rsi, .LC5[rip]	#,
	mov	rdi, rax	#, tmp103
	call	_ZN7testing8internal8EqHelperILb0EE7CompareImiEENS_15AssertionResultEPKcS6_RKT_RKT0_	#
.LEHE48:
	lea	rax, -112[rbp]	# tmp106,
	mov	rdi, rax	#, tmp106
	call	_ZNK7testing15AssertionResultcvbEv	#
	test	al, al	# retval.22_44
	jne	.L115	#,
	.loc 6 51 0 is_stmt 0 discriminator 4
	lea	rax, -32[rbp]	# tmp107,
	mov	rdi, rax	#, tmp107
.LEHB49:
	call	_ZN7testing7MessageC1Ev@PLT	#
.LEHE49:
	.loc 6 51 0 discriminator 6
	lea	rax, -112[rbp]	# tmp108,
	mov	rdi, rax	#, tmp108
	call	_ZNK7testing15AssertionResult15failure_messageEv	#
	mov	rdx, rax	# _47,
	lea	rax, -24[rbp]	# tmp109,
	mov	r8, rdx	#, _47
	mov	ecx, 51	#,
	lea	rdx, .LC3[rip]	#,
	mov	esi, 1	#,
	mov	rdi, rax	#, tmp109
.LEHB50:
	call	_ZN7testing8internal12AssertHelperC1ENS_14TestPartResult4TypeEPKciS5_@PLT	#
.LEHE50:
	.loc 6 51 0 discriminator 10
	lea	rdx, -32[rbp]	# tmp110,
	lea	rax, -24[rbp]	# tmp111,
	mov	rsi, rdx	#, tmp110
	mov	rdi, rax	#, tmp111
.LEHB51:
	call	_ZNK7testing8internal12AssertHelperaSERKNS_7MessageE@PLT	#
.LEHE51:
	.loc 6 51 0 discriminator 12
	lea	rax, -24[rbp]	# tmp112,
	mov	rdi, rax	#, tmp112
	call	_ZN7testing8internal12AssertHelperD1Ev@PLT	#
	lea	rax, -32[rbp]	# tmp113,
	mov	rdi, rax	#, tmp113
	call	_ZN7testing7MessageD1Ev	#
.L115:
	.loc 6 51 0 discriminator 13
	lea	rax, -112[rbp]	# tmp114,
	mov	rdi, rax	#, tmp114
	call	_ZN7testing15AssertionResultD1Ev	#
.LBE48:
.LBE47:
.LBE46:
	.loc 6 52 0 is_stmt 1 discriminator 13
	jmp	.L128	#
.L122:
	.loc 6 48 0
	mov	rdi, rax	#, _22
	call	__cxa_begin_catch@PLT	#
	nop
.LEHB52:
	call	__cxa_end_catch@PLT	#
	jmp	.L113	#
.L124:
	mov	rbx, rax	# tmp118,
	lea	rax, -48[rbp]	# tmp116,
	mov	rdi, rax	#, tmp116
	call	_ZN7testing8internal12AssertHelperD1Ev@PLT	#
	jmp	.L118	#
.L123:
	mov	rbx, rax	# tmp117,
.L118:
	.loc 6 48 0 is_stmt 0 discriminator 8
	lea	rax, -56[rbp]	# tmp121,
	mov	rdi, rax	#, tmp121
	call	_ZN7testing7MessageD1Ev	#
	mov	rax, rbx	# D.115975, tmp117
	mov	rdi, rax	#, D.115975
	call	_Unwind_Resume@PLT	#
.L127:
	mov	rbx, rax	# tmp124,
.LBB51:
.LBB50:
.LBB49:
	.loc 6 51 0 is_stmt 1
	lea	rax, -24[rbp]	# tmp122,
	mov	rdi, rax	#, tmp122
	call	_ZN7testing8internal12AssertHelperD1Ev@PLT	#
	jmp	.L120	#
.L126:
	mov	rbx, rax	# tmp123,
.L120:
	.loc 6 51 0 is_stmt 0 discriminator 9
	lea	rax, -32[rbp]	# tmp127,
	mov	rdi, rax	#, tmp127
	call	_ZN7testing7MessageD1Ev	#
	jmp	.L121	#
.L125:
	mov	rbx, rax	# tmp128,
.L121:
	.loc 6 51 0 discriminator 5
	lea	rax, -112[rbp]	# tmp130,
	mov	rdi, rax	#, tmp130
	call	_ZN7testing15AssertionResultD1Ev	#
	mov	rax, rbx	# D.115976, tmp128
	mov	rdi, rax	#, D.115976
	call	_Unwind_Resume@PLT	#
.LEHE52:
.L128:
.LBE49:
.LBE50:
.LBE51:
	.loc 6 52 0 is_stmt 1
	add	rsp, 120	#,
	pop	rbx	#
	pop	rbp	#
	.cfi_def_cfa 7, 8
	ret
	.cfi_endproc
.LFE4235:
	.section	.gcc_except_table
	.align 4
.LLSDA4235:
	.byte	0xff
	.byte	0x9b
	.uleb128 .LLSDATT4235-.LLSDATTD4235
.LLSDATTD4235:
	.byte	0x1
	.uleb128 .LLSDACSE4235-.LLSDACSB4235
.LLSDACSB4235:
	.uleb128 .LEHB43-.LFB4235
	.uleb128 .LEHE43-.LEHB43
	.uleb128 0
	.uleb128 0
	.uleb128 .LEHB44-.LFB4235
	.uleb128 .LEHE44-.LEHB44
	.uleb128 .L122-.LFB4235
	.uleb128 0x1
	.uleb128 .LEHB45-.LFB4235
	.uleb128 .LEHE45-.LEHB45
	.uleb128 0
	.uleb128 0
	.uleb128 .LEHB46-.LFB4235
	.uleb128 .LEHE46-.LEHB46
	.uleb128 .L123-.LFB4235
	.uleb128 0
	.uleb128 .LEHB47-.LFB4235
	.uleb128 .LEHE47-.LEHB47
	.uleb128 .L124-.LFB4235
	.uleb128 0
	.uleb128 .LEHB48-.LFB4235
	.uleb128 .LEHE48-.LEHB48
	.uleb128 0
	.uleb128 0
	.uleb128 .LEHB49-.LFB4235
	.uleb128 .LEHE49-.LEHB49
	.uleb128 .L125-.LFB4235
	.uleb128 0
	.uleb128 .LEHB50-.LFB4235
	.uleb128 .LEHE50-.LEHB50
	.uleb128 .L126-.LFB4235
	.uleb128 0
	.uleb128 .LEHB51-.LFB4235
	.uleb128 .LEHE51-.LEHB51
	.uleb128 .L127-.LFB4235
	.uleb128 0
	.uleb128 .LEHB52-.LFB4235
	.uleb128 .LEHE52-.LEHB52
	.uleb128 0
	.uleb128 0
.LLSDACSE4235:
	.byte	0x1
	.byte	0
	.align 4
	.long	0

.LLSDATT4235:
	.text
	.size	_ZN32BinarySearch_test_mixed_odd_Test8TestBodyEv, .-_ZN32BinarySearch_test_mixed_odd_Test8TestBodyEv
	.section	.text._ZN33BinarySearch_test_mixed_even_TestC2Ev,"axG",@progbits,_ZN33BinarySearch_test_mixed_even_TestC5Ev,comdat
	.align 2
	.weak	_ZN33BinarySearch_test_mixed_even_TestC2Ev
	.type	_ZN33BinarySearch_test_mixed_even_TestC2Ev, @function
_ZN33BinarySearch_test_mixed_even_TestC2Ev:
.LFB4237:
	.loc 6 54 0
	.cfi_startproc
	push	rbp	#
	.cfi_def_cfa_offset 16
	.cfi_offset 6, -16
	mov	rbp, rsp	#,
	.cfi_def_cfa_register 6
	sub	rsp, 16	#,
	mov	QWORD PTR -8[rbp], rdi	# this, this
.LBB52:
	.loc 6 54 0
	mov	rax, QWORD PTR -8[rbp]	# _4, this
	mov	rdi, rax	#, _4
	call	_ZN7testing4TestC2Ev@PLT	#
	lea	rdx, _ZTV33BinarySearch_test_mixed_even_Test[rip+16]	# _6,
	mov	rax, QWORD PTR -8[rbp]	# tmp89, this
	mov	QWORD PTR [rax], rdx	# this_2(D)->D.105966._vptr.Test, _6
.LBE52:
	nop
	leave
	.cfi_def_cfa 7, 8
	ret
	.cfi_endproc
.LFE4237:
	.size	_ZN33BinarySearch_test_mixed_even_TestC2Ev, .-_ZN33BinarySearch_test_mixed_even_TestC2Ev
	.weak	_ZN33BinarySearch_test_mixed_even_TestC1Ev
	.set	_ZN33BinarySearch_test_mixed_even_TestC1Ev,_ZN33BinarySearch_test_mixed_even_TestC2Ev
	.section	.text._ZN7testing8internal15TestFactoryImplI33BinarySearch_test_mixed_even_TestEC2Ev,"axG",@progbits,_ZN7testing8internal15TestFactoryImplI33BinarySearch_test_mixed_even_TestEC5Ev,comdat
	.align 2
	.weak	_ZN7testing8internal15TestFactoryImplI33BinarySearch_test_mixed_even_TestEC2Ev
	.type	_ZN7testing8internal15TestFactoryImplI33BinarySearch_test_mixed_even_TestEC2Ev, @function
_ZN7testing8internal15TestFactoryImplI33BinarySearch_test_mixed_even_TestEC2Ev:
.LFB4240:
	.loc 3 504 0
	.cfi_startproc
	push	rbp	#
	.cfi_def_cfa_offset 16
	.cfi_offset 6, -16
	mov	rbp, rsp	#,
	.cfi_def_cfa_register 6
	sub	rsp, 16	#,
	mov	QWORD PTR -8[rbp], rdi	# this, this
.LBB53:
	.loc 3 504 0
	mov	rax, QWORD PTR -8[rbp]	# _2, this
	mov	rdi, rax	#, _2
	call	_ZN7testing8internal15TestFactoryBaseC2Ev	#
	lea	rdx, _ZTVN7testing8internal15TestFactoryImplI33BinarySearch_test_mixed_even_TestEE[rip+16]	# _5,
	mov	rax, QWORD PTR -8[rbp]	# tmp89, this
	mov	QWORD PTR [rax], rdx	# this_1(D)->D.105994._vptr.TestFactoryBase, _5
.LBE53:
	nop
	leave
	.cfi_def_cfa 7, 8
	ret
	.cfi_endproc
.LFE4240:
	.size	_ZN7testing8internal15TestFactoryImplI33BinarySearch_test_mixed_even_TestEC2Ev, .-_ZN7testing8internal15TestFactoryImplI33BinarySearch_test_mixed_even_TestEC2Ev
	.weak	_ZN7testing8internal15TestFactoryImplI33BinarySearch_test_mixed_even_TestEC1Ev
	.set	_ZN7testing8internal15TestFactoryImplI33BinarySearch_test_mixed_even_TestEC1Ev,_ZN7testing8internal15TestFactoryImplI33BinarySearch_test_mixed_even_TestEC2Ev
	.globl	_ZN33BinarySearch_test_mixed_even_Test10test_info_E
	.bss
	.align 8
	.type	_ZN33BinarySearch_test_mixed_even_Test10test_info_E, @object
	.size	_ZN33BinarySearch_test_mixed_even_Test10test_info_E, 8
_ZN33BinarySearch_test_mixed_even_Test10test_info_E:
	.zero	8
	.section	.rodata
	.align 8
.LC13:
	.string	"Expected: search(arr, 5, 0); doesn't throw an exception.\n  Actual: it throws."
	.text
	.align 2
	.globl	_ZN33BinarySearch_test_mixed_even_Test8TestBodyEv
	.type	_ZN33BinarySearch_test_mixed_even_Test8TestBodyEv, @function
_ZN33BinarySearch_test_mixed_even_Test8TestBodyEv:
.LFB4242:
	.loc 6 55 0
	.cfi_startproc
	.cfi_personality 0x9b,DW.ref.__gxx_personality_v0
	.cfi_lsda 0x1b,.LLSDA4242
	push	rbp	#
	.cfi_def_cfa_offset 16
	.cfi_offset 6, -16
	mov	rbp, rsp	#,
	.cfi_def_cfa_register 6
	push	rbx	#
	sub	rsp, 120	#,
	.cfi_offset 3, -24
	mov	QWORD PTR -120[rbp], rdi	# this, this
	.loc 6 56 0
	mov	DWORD PTR -80[rbp], -3	# arr,
	mov	DWORD PTR -76[rbp], -1	# arr,
	mov	DWORD PTR -72[rbp], 0	# arr,
	mov	DWORD PTR -68[rbp], 5	# arr,
	mov	DWORD PTR -64[rbp], 7	# arr,
.LEHB53:
	.loc 6 58 0
	call	_ZN7testing8internal10AlwaysTrueEv@PLT	#
.LEHE53:
	test	al, al	# _17
	je	.L132	#,
.LEHB54:
	.loc 6 58 0 is_stmt 0 discriminator 3
	call	_ZN7testing8internal10AlwaysTrueEv@PLT	#
	test	al, al	# _20
	je	.L133	#,
	.loc 6 58 0 discriminator 6
	lea	rax, -80[rbp]	# tmp95,
	mov	edx, 0	#,
	mov	esi, 5	#,
	mov	rdi, rax	#, tmp95
	call	_Z6searchIiEmPT_mS0_	#
.LEHE54:
	jmp	.L133	#
.L132:
	.loc 6 58 0 discriminator 4
	lea	rax, -56[rbp]	# tmp96,
	mov	rdi, rax	#, tmp96
.LEHB55:
	call	_ZN7testing7MessageC1Ev@PLT	#
.LEHE55:
	lea	rax, -48[rbp]	# tmp97,
	lea	r8, .LC13[rip]	#,
	mov	ecx, 58	#,
	lea	rdx, .LC3[rip]	#,
	mov	esi, 1	#,
	mov	rdi, rax	#, tmp97
.LEHB56:
	call	_ZN7testing8internal12AssertHelperC1ENS_14TestPartResult4TypeEPKciS5_@PLT	#
.LEHE56:
	.loc 6 58 0 discriminator 9
	lea	rdx, -56[rbp]	# tmp98,
	lea	rax, -48[rbp]	# tmp99,
	mov	rsi, rdx	#, tmp98
	mov	rdi, rax	#, tmp99
.LEHB57:
	call	_ZNK7testing8internal12AssertHelperaSERKNS_7MessageE@PLT	#
.LEHE57:
	.loc 6 58 0 discriminator 11
	lea	rax, -48[rbp]	# tmp100,
	mov	rdi, rax	#, tmp100
	call	_ZN7testing8internal12AssertHelperD1Ev@PLT	#
	lea	rax, -56[rbp]	# tmp101,
	mov	rdi, rax	#, tmp101
	call	_ZN7testing7MessageD1Ev	#
.L133:
	.loc 6 59 0 is_stmt 1
	lea	rax, -80[rbp]	# tmp102,
	mov	edx, 0	#,
	mov	esi, 5	#,
	mov	rdi, rax	#, tmp102
.LEHB58:
	call	_Z6searchIiEmPT_mS0_	#
	mov	QWORD PTR -88[rbp], rax	# result, _38
.LBB54:
.LBB55:
.LBB56:
	.loc 6 61 0
	mov	DWORD PTR -36[rbp], 2	# D.106039,
	lea	rax, -112[rbp]	# tmp103,
	lea	rcx, -36[rbp]	# tmp104,
	lea	rdx, -88[rbp]	# tmp105,
	mov	r8, rcx	#, tmp104
	mov	rcx, rdx	#, tmp105
	lea	rdx, .LC8[rip]	#,
	lea	rsi, .LC5[rip]	#,
	mov	rdi, rax	#, tmp103
	call	_ZN7testing8internal8EqHelperILb0EE7CompareImiEENS_15AssertionResultEPKcS6_RKT_RKT0_	#
.LEHE58:
	lea	rax, -112[rbp]	# tmp106,
	mov	rdi, rax	#, tmp106
	call	_ZNK7testing15AssertionResultcvbEv	#
	test	al, al	# retval.26_45
	jne	.L134	#,
	.loc 6 61 0 is_stmt 0 discriminator 4
	lea	rax, -32[rbp]	# tmp107,
	mov	rdi, rax	#, tmp107
.LEHB59:
	call	_ZN7testing7MessageC1Ev@PLT	#
.LEHE59:
	.loc 6 61 0 discriminator 6
	lea	rax, -112[rbp]	# tmp108,
	mov	rdi, rax	#, tmp108
	call	_ZNK7testing15AssertionResult15failure_messageEv	#
	mov	rdx, rax	# _48,
	lea	rax, -24[rbp]	# tmp109,
	mov	r8, rdx	#, _48
	mov	ecx, 61	#,
	lea	rdx, .LC3[rip]	#,
	mov	esi, 1	#,
	mov	rdi, rax	#, tmp109
.LEHB60:
	call	_ZN7testing8internal12AssertHelperC1ENS_14TestPartResult4TypeEPKciS5_@PLT	#
.LEHE60:
	.loc 6 61 0 discriminator 10
	lea	rdx, -32[rbp]	# tmp110,
	lea	rax, -24[rbp]	# tmp111,
	mov	rsi, rdx	#, tmp110
	mov	rdi, rax	#, tmp111
.LEHB61:
	call	_ZNK7testing8internal12AssertHelperaSERKNS_7MessageE@PLT	#
.LEHE61:
	.loc 6 61 0 discriminator 12
	lea	rax, -24[rbp]	# tmp112,
	mov	rdi, rax	#, tmp112
	call	_ZN7testing8internal12AssertHelperD1Ev@PLT	#
	lea	rax, -32[rbp]	# tmp113,
	mov	rdi, rax	#, tmp113
	call	_ZN7testing7MessageD1Ev	#
.L134:
	.loc 6 61 0 discriminator 13
	lea	rax, -112[rbp]	# tmp114,
	mov	rdi, rax	#, tmp114
	call	_ZN7testing15AssertionResultD1Ev	#
.LBE56:
.LBE55:
.LBE54:
	.loc 6 62 0 is_stmt 1 discriminator 13
	jmp	.L147	#
.L141:
	.loc 6 58 0
	mov	rdi, rax	#, _23
	call	__cxa_begin_catch@PLT	#
	nop
.LEHB62:
	call	__cxa_end_catch@PLT	#
	jmp	.L132	#
.L143:
	mov	rbx, rax	# tmp118,
	lea	rax, -48[rbp]	# tmp116,
	mov	rdi, rax	#, tmp116
	call	_ZN7testing8internal12AssertHelperD1Ev@PLT	#
	jmp	.L137	#
.L142:
	mov	rbx, rax	# tmp117,
.L137:
	.loc 6 58 0 is_stmt 0 discriminator 8
	lea	rax, -56[rbp]	# tmp121,
	mov	rdi, rax	#, tmp121
	call	_ZN7testing7MessageD1Ev	#
	mov	rax, rbx	# D.115980, tmp117
	mov	rdi, rax	#, D.115980
	call	_Unwind_Resume@PLT	#
.L146:
	mov	rbx, rax	# tmp124,
.LBB59:
.LBB58:
.LBB57:
	.loc 6 61 0 is_stmt 1
	lea	rax, -24[rbp]	# tmp122,
	mov	rdi, rax	#, tmp122
	call	_ZN7testing8internal12AssertHelperD1Ev@PLT	#
	jmp	.L139	#
.L145:
	mov	rbx, rax	# tmp123,
.L139:
	.loc 6 61 0 is_stmt 0 discriminator 9
	lea	rax, -32[rbp]	# tmp127,
	mov	rdi, rax	#, tmp127
	call	_ZN7testing7MessageD1Ev	#
	jmp	.L140	#
.L144:
	mov	rbx, rax	# tmp128,
.L140:
	.loc 6 61 0 discriminator 5
	lea	rax, -112[rbp]	# tmp130,
	mov	rdi, rax	#, tmp130
	call	_ZN7testing15AssertionResultD1Ev	#
	mov	rax, rbx	# D.115981, tmp128
	mov	rdi, rax	#, D.115981
	call	_Unwind_Resume@PLT	#
.LEHE62:
.L147:
.LBE57:
.LBE58:
.LBE59:
	.loc 6 62 0 is_stmt 1
	add	rsp, 120	#,
	pop	rbx	#
	pop	rbp	#
	.cfi_def_cfa 7, 8
	ret
	.cfi_endproc
.LFE4242:
	.section	.gcc_except_table
	.align 4
.LLSDA4242:
	.byte	0xff
	.byte	0x9b
	.uleb128 .LLSDATT4242-.LLSDATTD4242
.LLSDATTD4242:
	.byte	0x1
	.uleb128 .LLSDACSE4242-.LLSDACSB4242
.LLSDACSB4242:
	.uleb128 .LEHB53-.LFB4242
	.uleb128 .LEHE53-.LEHB53
	.uleb128 0
	.uleb128 0
	.uleb128 .LEHB54-.LFB4242
	.uleb128 .LEHE54-.LEHB54
	.uleb128 .L141-.LFB4242
	.uleb128 0x1
	.uleb128 .LEHB55-.LFB4242
	.uleb128 .LEHE55-.LEHB55
	.uleb128 0
	.uleb128 0
	.uleb128 .LEHB56-.LFB4242
	.uleb128 .LEHE56-.LEHB56
	.uleb128 .L142-.LFB4242
	.uleb128 0
	.uleb128 .LEHB57-.LFB4242
	.uleb128 .LEHE57-.LEHB57
	.uleb128 .L143-.LFB4242
	.uleb128 0
	.uleb128 .LEHB58-.LFB4242
	.uleb128 .LEHE58-.LEHB58
	.uleb128 0
	.uleb128 0
	.uleb128 .LEHB59-.LFB4242
	.uleb128 .LEHE59-.LEHB59
	.uleb128 .L144-.LFB4242
	.uleb128 0
	.uleb128 .LEHB60-.LFB4242
	.uleb128 .LEHE60-.LEHB60
	.uleb128 .L145-.LFB4242
	.uleb128 0
	.uleb128 .LEHB61-.LFB4242
	.uleb128 .LEHE61-.LEHB61
	.uleb128 .L146-.LFB4242
	.uleb128 0
	.uleb128 .LEHB62-.LFB4242
	.uleb128 .LEHE62-.LEHB62
	.uleb128 0
	.uleb128 0
.LLSDACSE4242:
	.byte	0x1
	.byte	0
	.align 4
	.long	0

.LLSDATT4242:
	.text
	.size	_ZN33BinarySearch_test_mixed_even_Test8TestBodyEv, .-_ZN33BinarySearch_test_mixed_even_Test8TestBodyEv
	.section	.text._ZN32BinarySearch_test_not_exist_TestC2Ev,"axG",@progbits,_ZN32BinarySearch_test_not_exist_TestC5Ev,comdat
	.align 2
	.weak	_ZN32BinarySearch_test_not_exist_TestC2Ev
	.type	_ZN32BinarySearch_test_not_exist_TestC2Ev, @function
_ZN32BinarySearch_test_not_exist_TestC2Ev:
.LFB4244:
	.loc 6 64 0
	.cfi_startproc
	push	rbp	#
	.cfi_def_cfa_offset 16
	.cfi_offset 6, -16
	mov	rbp, rsp	#,
	.cfi_def_cfa_register 6
	sub	rsp, 16	#,
	mov	QWORD PTR -8[rbp], rdi	# this, this
.LBB60:
	.loc 6 64 0
	mov	rax, QWORD PTR -8[rbp]	# _4, this
	mov	rdi, rax	#, _4
	call	_ZN7testing4TestC2Ev@PLT	#
	lea	rdx, _ZTV32BinarySearch_test_not_exist_Test[rip+16]	# _6,
	mov	rax, QWORD PTR -8[rbp]	# tmp89, this
	mov	QWORD PTR [rax], rdx	# this_2(D)->D.106080._vptr.Test, _6
.LBE60:
	nop
	leave
	.cfi_def_cfa 7, 8
	ret
	.cfi_endproc
.LFE4244:
	.size	_ZN32BinarySearch_test_not_exist_TestC2Ev, .-_ZN32BinarySearch_test_not_exist_TestC2Ev
	.weak	_ZN32BinarySearch_test_not_exist_TestC1Ev
	.set	_ZN32BinarySearch_test_not_exist_TestC1Ev,_ZN32BinarySearch_test_not_exist_TestC2Ev
	.section	.text._ZN7testing8internal15TestFactoryImplI32BinarySearch_test_not_exist_TestEC2Ev,"axG",@progbits,_ZN7testing8internal15TestFactoryImplI32BinarySearch_test_not_exist_TestEC5Ev,comdat
	.align 2
	.weak	_ZN7testing8internal15TestFactoryImplI32BinarySearch_test_not_exist_TestEC2Ev
	.type	_ZN7testing8internal15TestFactoryImplI32BinarySearch_test_not_exist_TestEC2Ev, @function
_ZN7testing8internal15TestFactoryImplI32BinarySearch_test_not_exist_TestEC2Ev:
.LFB4247:
	.loc 3 504 0
	.cfi_startproc
	push	rbp	#
	.cfi_def_cfa_offset 16
	.cfi_offset 6, -16
	mov	rbp, rsp	#,
	.cfi_def_cfa_register 6
	sub	rsp, 16	#,
	mov	QWORD PTR -8[rbp], rdi	# this, this
.LBB61:
	.loc 3 504 0
	mov	rax, QWORD PTR -8[rbp]	# _2, this
	mov	rdi, rax	#, _2
	call	_ZN7testing8internal15TestFactoryBaseC2Ev	#
	lea	rdx, _ZTVN7testing8internal15TestFactoryImplI32BinarySearch_test_not_exist_TestEE[rip+16]	# _5,
	mov	rax, QWORD PTR -8[rbp]	# tmp89, this
	mov	QWORD PTR [rax], rdx	# this_1(D)->D.106108._vptr.TestFactoryBase, _5
.LBE61:
	nop
	leave
	.cfi_def_cfa 7, 8
	ret
	.cfi_endproc
.LFE4247:
	.size	_ZN7testing8internal15TestFactoryImplI32BinarySearch_test_not_exist_TestEC2Ev, .-_ZN7testing8internal15TestFactoryImplI32BinarySearch_test_not_exist_TestEC2Ev
	.weak	_ZN7testing8internal15TestFactoryImplI32BinarySearch_test_not_exist_TestEC1Ev
	.set	_ZN7testing8internal15TestFactoryImplI32BinarySearch_test_not_exist_TestEC1Ev,_ZN7testing8internal15TestFactoryImplI32BinarySearch_test_not_exist_TestEC2Ev
	.globl	_ZN32BinarySearch_test_not_exist_Test10test_info_E
	.bss
	.align 8
	.type	_ZN32BinarySearch_test_not_exist_Test10test_info_E, @object
	.size	_ZN32BinarySearch_test_not_exist_Test10test_info_E, 8
_ZN32BinarySearch_test_not_exist_Test10test_info_E:
	.zero	8
	.section	.rodata
	.align 8
.LC14:
	.string	"Expected: search(arr, 4, -69) throws an exception of type SearchValueNotFound.\n  Actual: it throws nothing."
	.align 8
.LC15:
	.string	"Expected: search(arr, 4, -69) throws an exception of type SearchValueNotFound.\n  Actual: it throws a different type."
	.text
	.align 2
	.globl	_ZN32BinarySearch_test_not_exist_Test8TestBodyEv
	.type	_ZN32BinarySearch_test_not_exist_Test8TestBodyEv, @function
_ZN32BinarySearch_test_not_exist_Test8TestBodyEv:
.LFB4249:
	.loc 6 65 0
	.cfi_startproc
	.cfi_personality 0x9b,DW.ref.__gxx_personality_v0
	.cfi_lsda 0x1b,.LLSDA4249
	push	rbp	#
	.cfi_def_cfa_offset 16
	.cfi_offset 6, -16
	mov	rbp, rsp	#,
	.cfi_def_cfa_register 6
	push	rbx	#
	sub	rsp, 88	#,
	.cfi_offset 3, -24
	mov	QWORD PTR -88[rbp], rdi	# this, this
	.loc 6 66 0
	mov	DWORD PTR -64[rbp], 1	# arr,
	mov	DWORD PTR -60[rbp], 3	# arr,
	mov	DWORD PTR -56[rbp], 5	# arr,
	mov	DWORD PTR -52[rbp], 7	# arr,
.LBB62:
.LBB63:
.LBB64:
	.loc 6 68 0
	lea	rax, -72[rbp]	# tmp96,
	lea	rsi, .LC0[rip]	#,
	mov	rdi, rax	#, tmp96
	call	_ZN7testing8internal12ConstCharPtrC1EPKc	#
	lea	rax, -72[rbp]	# tmp97,
	mov	rdi, rax	#, tmp97
	call	_ZNK7testing8internal12ConstCharPtrcvbEv	#
	test	al, al	# retval.27_15
	je	.L151	#,
.LBB65:
	.loc 6 68 0 is_stmt 0 discriminator 2
	mov	BYTE PTR -17[rbp], 0	# gtest_caught_expected,
.LEHB63:
	call	_ZN7testing8internal10AlwaysTrueEv@PLT	#
	test	al, al	# _18
	je	.L152	#,
	.loc 6 68 0 discriminator 5
	lea	rax, -64[rbp]	# tmp98,
	mov	edx, -69	#,
	mov	esi, 4	#,
	mov	rdi, rax	#, tmp98
	call	_Z6searchIiEmPT_mS0_	#
.LEHE63:
.L152:
	.loc 6 68 0 discriminator 6
	movzx	eax, BYTE PTR -17[rbp]	# tmp99, gtest_caught_expected
	xor	eax, 1	# _31,
	test	al, al	# _31
	je	.L166	#,
	.loc 6 68 0 discriminator 7
	lea	rax, .LC14[rip]	# tmp100,
	mov	QWORD PTR -72[rbp], rax	# gtest_msg.value, tmp100
	nop
.L151:
.LBE65:
	.loc 6 68 0 discriminator 8
	lea	rax, -48[rbp]	# tmp101,
	mov	rdi, rax	#, tmp101
.LEHB64:
	call	_ZN7testing7MessageC1Ev@PLT	#
.LEHE64:
	.loc 6 68 0 discriminator 9
	mov	rdx, QWORD PTR -72[rbp]	# _34, gtest_msg.value
	lea	rax, -40[rbp]	# tmp102,
	mov	r8, rdx	#, _34
	mov	ecx, 68	#,
	lea	rdx, .LC3[rip]	#,
	mov	esi, 1	#,
	mov	rdi, rax	#, tmp102
.LEHB65:
	call	_ZN7testing8internal12AssertHelperC1ENS_14TestPartResult4TypeEPKciS5_@PLT	#
.LEHE65:
	.loc 6 68 0 discriminator 11
	lea	rdx, -48[rbp]	# tmp103,
	lea	rax, -40[rbp]	# tmp104,
	mov	rsi, rdx	#, tmp103
	mov	rdi, rax	#, tmp104
.LEHB66:
	call	_ZNK7testing8internal12AssertHelperaSERKNS_7MessageE@PLT	#
.LEHE66:
	.loc 6 68 0 discriminator 13
	lea	rax, -40[rbp]	# tmp105,
	mov	rdi, rax	#, tmp105
	call	_ZN7testing8internal12AssertHelperD1Ev@PLT	#
	lea	rax, -48[rbp]	# tmp106,
	mov	rdi, rax	#, tmp106
	call	_ZN7testing7MessageD1Ev	#
.LBE64:
.LBE63:
.LBE62:
	.loc 6 69 0 is_stmt 1 discriminator 13
	jmp	.L166	#
.L161:
	cmp	rdx, 1	# D.115984,
	jne	.L165	#,
.LBB70:
.LBB69:
.LBB68:
.LBB67:
.LBB66:
	.loc 6 68 0
	mov	rdi, rax	#, _21
	call	__cxa_begin_catch@PLT	#
	mov	QWORD PTR -32[rbp], rax	# D.106176, _23
	mov	BYTE PTR -17[rbp], 1	# gtest_caught_expected,
.LEHB67:
	call	__cxa_end_catch@PLT	#
	jmp	.L152	#
.L165:
.LBE66:
	mov	rdi, rax	#, _27
	call	__cxa_begin_catch@PLT	#
	lea	rax, .LC15[rip]	# tmp109,
	mov	QWORD PTR -72[rbp], rax	# gtest_msg.value, tmp109
	nop
	call	__cxa_end_catch@PLT	#
.LEHE67:
	jmp	.L151	#
.L164:
	mov	rbx, rax	# tmp112,
.LBE67:
	lea	rax, -40[rbp]	# tmp110,
	mov	rdi, rax	#, tmp110
	call	_ZN7testing8internal12AssertHelperD1Ev@PLT	#
	jmp	.L159	#
.L163:
	mov	rbx, rax	# tmp111,
.L159:
	.loc 6 68 0 is_stmt 0 discriminator 10
	lea	rax, -48[rbp]	# tmp115,
	mov	rdi, rax	#, tmp115
	call	_ZN7testing7MessageD1Ev	#
	mov	rax, rbx	# tmp116, tmp111
	jmp	.L160	#
.L162:
.L160:
	mov	rdi, rax	#, D.115985
.LEHB68:
	call	_Unwind_Resume@PLT	#
.LEHE68:
.L166:
.LBE68:
.LBE69:
.LBE70:
	.loc 6 69 0 is_stmt 1
	nop
	add	rsp, 88	#,
	pop	rbx	#
	pop	rbp	#
	.cfi_def_cfa 7, 8
	ret
	.cfi_endproc
.LFE4249:
	.section	.gcc_except_table
	.align 4
.LLSDA4249:
	.byte	0xff
	.byte	0x9b
	.uleb128 .LLSDATT4249-.LLSDATTD4249
.LLSDATTD4249:
	.byte	0x1
	.uleb128 .LLSDACSE4249-.LLSDACSB4249
.LLSDACSB4249:
	.uleb128 .LEHB63-.LFB4249
	.uleb128 .LEHE63-.LEHB63
	.uleb128 .L161-.LFB4249
	.uleb128 0x3
	.uleb128 .LEHB64-.LFB4249
	.uleb128 .LEHE64-.LEHB64
	.uleb128 .L162-.LFB4249
	.uleb128 0
	.uleb128 .LEHB65-.LFB4249
	.uleb128 .LEHE65-.LEHB65
	.uleb128 .L163-.LFB4249
	.uleb128 0
	.uleb128 .LEHB66-.LFB4249
	.uleb128 .LEHE66-.LEHB66
	.uleb128 .L164-.LFB4249
	.uleb128 0
	.uleb128 .LEHB67-.LFB4249
	.uleb128 .LEHE67-.LEHB67
	.uleb128 .L162-.LFB4249
	.uleb128 0
	.uleb128 .LEHB68-.LFB4249
	.uleb128 .LEHE68-.LEHB68
	.uleb128 0
	.uleb128 0
.LLSDACSE4249:
	.byte	0x2
	.byte	0
	.byte	0x1
	.byte	0x7d
	.align 4
	.long	0

	.long	DW.ref._ZTI19SearchValueNotFound-.
.LLSDATT4249:
	.text
	.size	_ZN32BinarySearch_test_not_exist_Test8TestBodyEv, .-_ZN32BinarySearch_test_not_exist_Test8TestBodyEv
	.section	.text._ZN37BinarySearch_test_different_type_TestC2Ev,"axG",@progbits,_ZN37BinarySearch_test_different_type_TestC5Ev,comdat
	.align 2
	.weak	_ZN37BinarySearch_test_different_type_TestC2Ev
	.type	_ZN37BinarySearch_test_different_type_TestC2Ev, @function
_ZN37BinarySearch_test_different_type_TestC2Ev:
.LFB4251:
	.loc 6 71 0
	.cfi_startproc
	push	rbp	#
	.cfi_def_cfa_offset 16
	.cfi_offset 6, -16
	mov	rbp, rsp	#,
	.cfi_def_cfa_register 6
	sub	rsp, 16	#,
	mov	QWORD PTR -8[rbp], rdi	# this, this
.LBB71:
	.loc 6 71 0
	mov	rax, QWORD PTR -8[rbp]	# _4, this
	mov	rdi, rax	#, _4
	call	_ZN7testing4TestC2Ev@PLT	#
	lea	rdx, _ZTV37BinarySearch_test_different_type_Test[rip+16]	# _6,
	mov	rax, QWORD PTR -8[rbp]	# tmp89, this
	mov	QWORD PTR [rax], rdx	# this_2(D)->D.106217._vptr.Test, _6
.LBE71:
	nop
	leave
	.cfi_def_cfa 7, 8
	ret
	.cfi_endproc
.LFE4251:
	.size	_ZN37BinarySearch_test_different_type_TestC2Ev, .-_ZN37BinarySearch_test_different_type_TestC2Ev
	.weak	_ZN37BinarySearch_test_different_type_TestC1Ev
	.set	_ZN37BinarySearch_test_different_type_TestC1Ev,_ZN37BinarySearch_test_different_type_TestC2Ev
	.section	.text._ZN7testing8internal15TestFactoryImplI37BinarySearch_test_different_type_TestEC2Ev,"axG",@progbits,_ZN7testing8internal15TestFactoryImplI37BinarySearch_test_different_type_TestEC5Ev,comdat
	.align 2
	.weak	_ZN7testing8internal15TestFactoryImplI37BinarySearch_test_different_type_TestEC2Ev
	.type	_ZN7testing8internal15TestFactoryImplI37BinarySearch_test_different_type_TestEC2Ev, @function
_ZN7testing8internal15TestFactoryImplI37BinarySearch_test_different_type_TestEC2Ev:
.LFB4254:
	.loc 3 504 0
	.cfi_startproc
	push	rbp	#
	.cfi_def_cfa_offset 16
	.cfi_offset 6, -16
	mov	rbp, rsp	#,
	.cfi_def_cfa_register 6
	sub	rsp, 16	#,
	mov	QWORD PTR -8[rbp], rdi	# this, this
.LBB72:
	.loc 3 504 0
	mov	rax, QWORD PTR -8[rbp]	# _2, this
	mov	rdi, rax	#, _2
	call	_ZN7testing8internal15TestFactoryBaseC2Ev	#
	lea	rdx, _ZTVN7testing8internal15TestFactoryImplI37BinarySearch_test_different_type_TestEE[rip+16]	# _5,
	mov	rax, QWORD PTR -8[rbp]	# tmp89, this
	mov	QWORD PTR [rax], rdx	# this_1(D)->D.106245._vptr.TestFactoryBase, _5
.LBE72:
	nop
	leave
	.cfi_def_cfa 7, 8
	ret
	.cfi_endproc
.LFE4254:
	.size	_ZN7testing8internal15TestFactoryImplI37BinarySearch_test_different_type_TestEC2Ev, .-_ZN7testing8internal15TestFactoryImplI37BinarySearch_test_different_type_TestEC2Ev
	.weak	_ZN7testing8internal15TestFactoryImplI37BinarySearch_test_different_type_TestEC1Ev
	.set	_ZN7testing8internal15TestFactoryImplI37BinarySearch_test_different_type_TestEC1Ev,_ZN7testing8internal15TestFactoryImplI37BinarySearch_test_different_type_TestEC2Ev
	.globl	_ZN37BinarySearch_test_different_type_Test10test_info_E
	.bss
	.align 8
	.type	_ZN37BinarySearch_test_different_type_Test10test_info_E, @object
	.size	_ZN37BinarySearch_test_different_type_Test10test_info_E, 8
_ZN37BinarySearch_test_different_type_Test10test_info_E:
	.zero	8
	.section	.rodata
	.align 8
.LC21:
	.string	"Expected: search(arr, 5, 0.3) doesn't throw an exception.\n  Actual: it throws."
	.text
	.align 2
	.globl	_ZN37BinarySearch_test_different_type_Test8TestBodyEv
	.type	_ZN37BinarySearch_test_different_type_Test8TestBodyEv, @function
_ZN37BinarySearch_test_different_type_Test8TestBodyEv:
.LFB4256:
	.loc 6 72 0
	.cfi_startproc
	.cfi_personality 0x9b,DW.ref.__gxx_personality_v0
	.cfi_lsda 0x1b,.LLSDA4256
	push	rbp	#
	.cfi_def_cfa_offset 16
	.cfi_offset 6, -16
	mov	rbp, rsp	#,
	.cfi_def_cfa_register 6
	push	rbx	#
	sub	rsp, 136	#,
	.cfi_offset 3, -24
	mov	QWORD PTR -136[rbp], rdi	# this, this
	.loc 6 73 0
	movsd	xmm0, QWORD PTR .LC16[rip]	# tmp95,
	movsd	QWORD PTR -96[rbp], xmm0	# arr, tmp95
	movsd	xmm0, QWORD PTR .LC17[rip]	# tmp96,
	movsd	QWORD PTR -88[rbp], xmm0	# arr, tmp96
	movsd	xmm0, QWORD PTR .LC18[rip]	# tmp97,
	movsd	QWORD PTR -80[rbp], xmm0	# arr, tmp97
	movsd	xmm0, QWORD PTR .LC19[rip]	# tmp98,
	movsd	QWORD PTR -72[rbp], xmm0	# arr, tmp98
	movsd	xmm0, QWORD PTR .LC20[rip]	# tmp99,
	movsd	QWORD PTR -64[rbp], xmm0	# arr, tmp99
.LEHB69:
	.loc 6 75 0
	call	_ZN7testing8internal10AlwaysTrueEv@PLT	#
.LEHE69:
	test	al, al	# _17
	je	.L170	#,
.LEHB70:
	.loc 6 75 0 is_stmt 0 discriminator 3
	call	_ZN7testing8internal10AlwaysTrueEv@PLT	#
	test	al, al	# _20
	je	.L171	#,
	.loc 6 75 0 discriminator 6
	mov	rdx, QWORD PTR .LC18[rip]	# tmp100,
	lea	rax, -96[rbp]	# tmp101,
	mov	QWORD PTR -144[rbp], rdx	# %sfp, tmp100
	movsd	xmm0, QWORD PTR -144[rbp]	#, %sfp
	mov	esi, 5	#,
	mov	rdi, rax	#, tmp101
	call	_Z6searchIdEmPT_mS0_	#
.LEHE70:
	jmp	.L171	#
.L170:
	.loc 6 75 0 discriminator 4
	lea	rax, -56[rbp]	# tmp102,
	mov	rdi, rax	#, tmp102
.LEHB71:
	call	_ZN7testing7MessageC1Ev@PLT	#
.LEHE71:
	lea	rax, -48[rbp]	# tmp103,
	lea	r8, .LC21[rip]	#,
	mov	ecx, 75	#,
	lea	rdx, .LC3[rip]	#,
	mov	esi, 1	#,
	mov	rdi, rax	#, tmp103
.LEHB72:
	call	_ZN7testing8internal12AssertHelperC1ENS_14TestPartResult4TypeEPKciS5_@PLT	#
.LEHE72:
	.loc 6 75 0 discriminator 9
	lea	rdx, -56[rbp]	# tmp104,
	lea	rax, -48[rbp]	# tmp105,
	mov	rsi, rdx	#, tmp104
	mov	rdi, rax	#, tmp105
.LEHB73:
	call	_ZNK7testing8internal12AssertHelperaSERKNS_7MessageE@PLT	#
.LEHE73:
	.loc 6 75 0 discriminator 11
	lea	rax, -48[rbp]	# tmp106,
	mov	rdi, rax	#, tmp106
	call	_ZN7testing8internal12AssertHelperD1Ev@PLT	#
	lea	rax, -56[rbp]	# tmp107,
	mov	rdi, rax	#, tmp107
	call	_ZN7testing7MessageD1Ev	#
.L171:
	.loc 6 76 0 is_stmt 1
	mov	rdx, QWORD PTR .LC18[rip]	# tmp108,
	lea	rax, -96[rbp]	# tmp109,
	mov	QWORD PTR -144[rbp], rdx	# %sfp, tmp108
	movsd	xmm0, QWORD PTR -144[rbp]	#, %sfp
	mov	esi, 5	#,
	mov	rdi, rax	#, tmp109
.LEHB74:
	call	_Z6searchIdEmPT_mS0_	#
	mov	QWORD PTR -104[rbp], rax	# result, _38
.LBB73:
.LBB74:
.LBB75:
	.loc 6 78 0
	mov	DWORD PTR -36[rbp], 2	# D.106294,
	lea	rax, -128[rbp]	# tmp110,
	lea	rcx, -36[rbp]	# tmp111,
	lea	rdx, -104[rbp]	# tmp112,
	mov	r8, rcx	#, tmp111
	mov	rcx, rdx	#, tmp112
	lea	rdx, .LC8[rip]	#,
	lea	rsi, .LC5[rip]	#,
	mov	rdi, rax	#, tmp110
	call	_ZN7testing8internal8EqHelperILb0EE7CompareImiEENS_15AssertionResultEPKcS6_RKT_RKT0_	#
.LEHE74:
	lea	rax, -128[rbp]	# tmp113,
	mov	rdi, rax	#, tmp113
	call	_ZNK7testing15AssertionResultcvbEv	#
	test	al, al	# retval.32_45
	jne	.L172	#,
	.loc 6 78 0 is_stmt 0 discriminator 4
	lea	rax, -32[rbp]	# tmp114,
	mov	rdi, rax	#, tmp114
.LEHB75:
	call	_ZN7testing7MessageC1Ev@PLT	#
.LEHE75:
	.loc 6 78 0 discriminator 6
	lea	rax, -128[rbp]	# tmp115,
	mov	rdi, rax	#, tmp115
	call	_ZNK7testing15AssertionResult15failure_messageEv	#
	mov	rdx, rax	# _48,
	lea	rax, -24[rbp]	# tmp116,
	mov	r8, rdx	#, _48
	mov	ecx, 78	#,
	lea	rdx, .LC3[rip]	#,
	mov	esi, 1	#,
	mov	rdi, rax	#, tmp116
.LEHB76:
	call	_ZN7testing8internal12AssertHelperC1ENS_14TestPartResult4TypeEPKciS5_@PLT	#
.LEHE76:
	.loc 6 78 0 discriminator 10
	lea	rdx, -32[rbp]	# tmp117,
	lea	rax, -24[rbp]	# tmp118,
	mov	rsi, rdx	#, tmp117
	mov	rdi, rax	#, tmp118
.LEHB77:
	call	_ZNK7testing8internal12AssertHelperaSERKNS_7MessageE@PLT	#
.LEHE77:
	.loc 6 78 0 discriminator 12
	lea	rax, -24[rbp]	# tmp119,
	mov	rdi, rax	#, tmp119
	call	_ZN7testing8internal12AssertHelperD1Ev@PLT	#
	lea	rax, -32[rbp]	# tmp120,
	mov	rdi, rax	#, tmp120
	call	_ZN7testing7MessageD1Ev	#
.L172:
	.loc 6 78 0 discriminator 13
	lea	rax, -128[rbp]	# tmp121,
	mov	rdi, rax	#, tmp121
	call	_ZN7testing15AssertionResultD1Ev	#
.LBE75:
.LBE74:
.LBE73:
	.loc 6 79 0 is_stmt 1 discriminator 13
	jmp	.L185	#
.L179:
	.loc 6 75 0
	mov	rdi, rax	#, _23
	call	__cxa_begin_catch@PLT	#
	nop
.LEHB78:
	call	__cxa_end_catch@PLT	#
	jmp	.L170	#
.L181:
	mov	rbx, rax	# tmp125,
	lea	rax, -48[rbp]	# tmp123,
	mov	rdi, rax	#, tmp123
	call	_ZN7testing8internal12AssertHelperD1Ev@PLT	#
	jmp	.L175	#
.L180:
	mov	rbx, rax	# tmp124,
.L175:
	.loc 6 75 0 is_stmt 0 discriminator 8
	lea	rax, -56[rbp]	# tmp128,
	mov	rdi, rax	#, tmp128
	call	_ZN7testing7MessageD1Ev	#
	mov	rax, rbx	# D.115988, tmp124
	mov	rdi, rax	#, D.115988
	call	_Unwind_Resume@PLT	#
.L184:
	mov	rbx, rax	# tmp131,
.LBB78:
.LBB77:
.LBB76:
	.loc 6 78 0 is_stmt 1
	lea	rax, -24[rbp]	# tmp129,
	mov	rdi, rax	#, tmp129
	call	_ZN7testing8internal12AssertHelperD1Ev@PLT	#
	jmp	.L177	#
.L183:
	mov	rbx, rax	# tmp130,
.L177:
	.loc 6 78 0 is_stmt 0 discriminator 9
	lea	rax, -32[rbp]	# tmp134,
	mov	rdi, rax	#, tmp134
	call	_ZN7testing7MessageD1Ev	#
	jmp	.L178	#
.L182:
	mov	rbx, rax	# tmp135,
.L178:
	.loc 6 78 0 discriminator 5
	lea	rax, -128[rbp]	# tmp137,
	mov	rdi, rax	#, tmp137
	call	_ZN7testing15AssertionResultD1Ev	#
	mov	rax, rbx	# D.115989, tmp135
	mov	rdi, rax	#, D.115989
	call	_Unwind_Resume@PLT	#
.LEHE78:
.L185:
.LBE76:
.LBE77:
.LBE78:
	.loc 6 79 0 is_stmt 1
	add	rsp, 136	#,
	pop	rbx	#
	pop	rbp	#
	.cfi_def_cfa 7, 8
	ret
	.cfi_endproc
.LFE4256:
	.section	.gcc_except_table
	.align 4
.LLSDA4256:
	.byte	0xff
	.byte	0x9b
	.uleb128 .LLSDATT4256-.LLSDATTD4256
.LLSDATTD4256:
	.byte	0x1
	.uleb128 .LLSDACSE4256-.LLSDACSB4256
.LLSDACSB4256:
	.uleb128 .LEHB69-.LFB4256
	.uleb128 .LEHE69-.LEHB69
	.uleb128 0
	.uleb128 0
	.uleb128 .LEHB70-.LFB4256
	.uleb128 .LEHE70-.LEHB70
	.uleb128 .L179-.LFB4256
	.uleb128 0x1
	.uleb128 .LEHB71-.LFB4256
	.uleb128 .LEHE71-.LEHB71
	.uleb128 0
	.uleb128 0
	.uleb128 .LEHB72-.LFB4256
	.uleb128 .LEHE72-.LEHB72
	.uleb128 .L180-.LFB4256
	.uleb128 0
	.uleb128 .LEHB73-.LFB4256
	.uleb128 .LEHE73-.LEHB73
	.uleb128 .L181-.LFB4256
	.uleb128 0
	.uleb128 .LEHB74-.LFB4256
	.uleb128 .LEHE74-.LEHB74
	.uleb128 0
	.uleb128 0
	.uleb128 .LEHB75-.LFB4256
	.uleb128 .LEHE75-.LEHB75
	.uleb128 .L182-.LFB4256
	.uleb128 0
	.uleb128 .LEHB76-.LFB4256
	.uleb128 .LEHE76-.LEHB76
	.uleb128 .L183-.LFB4256
	.uleb128 0
	.uleb128 .LEHB77-.LFB4256
	.uleb128 .LEHE77-.LEHB77
	.uleb128 .L184-.LFB4256
	.uleb128 0
	.uleb128 .LEHB78-.LFB4256
	.uleb128 .LEHE78-.LEHB78
	.uleb128 0
	.uleb128 0
.LLSDACSE4256:
	.byte	0x1
	.byte	0
	.align 4
	.long	0

.LLSDATT4256:
	.text
	.size	_ZN37BinarySearch_test_different_type_Test8TestBodyEv, .-_ZN37BinarySearch_test_different_type_Test8TestBodyEv
	.section	.text._ZN7testing8internal10scoped_ptrINSt7__cxx1118basic_stringstreamIcSt11char_traitsIcESaIcEEEED2Ev,"axG",@progbits,_ZN7testing8internal10scoped_ptrINSt7__cxx1118basic_stringstreamIcSt11char_traitsIcESaIcEEEED5Ev,comdat
	.align 2
	.weak	_ZN7testing8internal10scoped_ptrINSt7__cxx1118basic_stringstreamIcSt11char_traitsIcESaIcEEEED2Ev
	.type	_ZN7testing8internal10scoped_ptrINSt7__cxx1118basic_stringstreamIcSt11char_traitsIcESaIcEEEED2Ev, @function
_ZN7testing8internal10scoped_ptrINSt7__cxx1118basic_stringstreamIcSt11char_traitsIcESaIcEEEED2Ev:
.LFB4508:
	.file 7 "/opt/gtest/googletest/include/gtest/internal/gtest-port.h"
	.loc 7 1158 0
	.cfi_startproc
	.cfi_personality 0x9b,DW.ref.__gxx_personality_v0
	.cfi_lsda 0x1b,.LLSDA4508
	push	rbp	#
	.cfi_def_cfa_offset 16
	.cfi_offset 6, -16
	mov	rbp, rsp	#,
	.cfi_def_cfa_register 6
	sub	rsp, 16	#,
	mov	QWORD PTR -8[rbp], rdi	# this, this
.LBB79:
	.loc 7 1158 0
	mov	rax, QWORD PTR -8[rbp]	# tmp87, this
	mov	esi, 0	#,
	mov	rdi, rax	#, tmp87
	call	_ZN7testing8internal10scoped_ptrINSt7__cxx1118basic_stringstreamIcSt11char_traitsIcESaIcEEEE5resetEPS7_	#
.LBE79:
	nop
	leave
	.cfi_def_cfa 7, 8
	ret
	.cfi_endproc
.LFE4508:
	.section	.gcc_except_table
.LLSDA4508:
	.byte	0xff
	.byte	0xff
	.byte	0x1
	.uleb128 .LLSDACSE4508-.LLSDACSB4508
.LLSDACSB4508:
.LLSDACSE4508:
	.section	.text._ZN7testing8internal10scoped_ptrINSt7__cxx1118basic_stringstreamIcSt11char_traitsIcESaIcEEEED2Ev,"axG",@progbits,_ZN7testing8internal10scoped_ptrINSt7__cxx1118basic_stringstreamIcSt11char_traitsIcESaIcEEEED5Ev,comdat
	.size	_ZN7testing8internal10scoped_ptrINSt7__cxx1118basic_stringstreamIcSt11char_traitsIcESaIcEEEED2Ev, .-_ZN7testing8internal10scoped_ptrINSt7__cxx1118basic_stringstreamIcSt11char_traitsIcESaIcEEEED2Ev
	.weak	_ZN7testing8internal10scoped_ptrINSt7__cxx1118basic_stringstreamIcSt11char_traitsIcESaIcEEEED1Ev
	.set	_ZN7testing8internal10scoped_ptrINSt7__cxx1118basic_stringstreamIcSt11char_traitsIcESaIcEEEED1Ev,_ZN7testing8internal10scoped_ptrINSt7__cxx1118basic_stringstreamIcSt11char_traitsIcESaIcEEEED2Ev
	.section	.text._ZNK7testing8internal10scoped_ptrINSt7__cxx1112basic_stringIcSt11char_traitsIcESaIcEEEE3getEv,"axG",@progbits,_ZNK7testing8internal10scoped_ptrINSt7__cxx1112basic_stringIcSt11char_traitsIcESaIcEEEE3getEv,comdat
	.align 2
	.weak	_ZNK7testing8internal10scoped_ptrINSt7__cxx1112basic_stringIcSt11char_traitsIcESaIcEEEE3getEv
	.type	_ZNK7testing8internal10scoped_ptrINSt7__cxx1112basic_stringIcSt11char_traitsIcESaIcEEEE3getEv, @function
_ZNK7testing8internal10scoped_ptrINSt7__cxx1112basic_stringIcSt11char_traitsIcESaIcEEEE3getEv:
.LFB4582:
	.loc 7 1162 0
	.cfi_startproc
	push	rbp	#
	.cfi_def_cfa_offset 16
	.cfi_offset 6, -16
	mov	rbp, rsp	#,
	.cfi_def_cfa_register 6
	mov	QWORD PTR -8[rbp], rdi	# this, this
	.loc 7 1162 0
	mov	rax, QWORD PTR -8[rbp]	# tmp89, this
	mov	rax, QWORD PTR [rax]	# _3, this_2(D)->ptr_
	pop	rbp	#
	.cfi_def_cfa 7, 8
	ret
	.cfi_endproc
.LFE4582:
	.size	_ZNK7testing8internal10scoped_ptrINSt7__cxx1112basic_stringIcSt11char_traitsIcESaIcEEEE3getEv, .-_ZNK7testing8internal10scoped_ptrINSt7__cxx1112basic_stringIcSt11char_traitsIcESaIcEEEE3getEv
	.section	.text._ZNK7testing8internal10scoped_ptrINSt7__cxx1112basic_stringIcSt11char_traitsIcESaIcEEEEptEv,"axG",@progbits,_ZNK7testing8internal10scoped_ptrINSt7__cxx1112basic_stringIcSt11char_traitsIcESaIcEEEEptEv,comdat
	.align 2
	.weak	_ZNK7testing8internal10scoped_ptrINSt7__cxx1112basic_stringIcSt11char_traitsIcESaIcEEEEptEv
	.type	_ZNK7testing8internal10scoped_ptrINSt7__cxx1112basic_stringIcSt11char_traitsIcESaIcEEEEptEv, @function
_ZNK7testing8internal10scoped_ptrINSt7__cxx1112basic_stringIcSt11char_traitsIcESaIcEEEEptEv:
.LFB4583:
	.loc 7 1161 0
	.cfi_startproc
	push	rbp	#
	.cfi_def_cfa_offset 16
	.cfi_offset 6, -16
	mov	rbp, rsp	#,
	.cfi_def_cfa_register 6
	mov	QWORD PTR -8[rbp], rdi	# this, this
	.loc 7 1161 0
	mov	rax, QWORD PTR -8[rbp]	# tmp89, this
	mov	rax, QWORD PTR [rax]	# _3, this_2(D)->ptr_
	pop	rbp	#
	.cfi_def_cfa 7, 8
	ret
	.cfi_endproc
.LFE4583:
	.size	_ZNK7testing8internal10scoped_ptrINSt7__cxx1112basic_stringIcSt11char_traitsIcESaIcEEEEptEv, .-_ZNK7testing8internal10scoped_ptrINSt7__cxx1112basic_stringIcSt11char_traitsIcESaIcEEEEptEv
	.section	.text._ZN7testing8internal10scoped_ptrINSt7__cxx1112basic_stringIcSt11char_traitsIcESaIcEEEE5resetEPS7_,"axG",@progbits,_ZN7testing8internal10scoped_ptrINSt7__cxx1112basic_stringIcSt11char_traitsIcESaIcEEEE5resetEPS7_,comdat
	.align 2
	.weak	_ZN7testing8internal10scoped_ptrINSt7__cxx1112basic_stringIcSt11char_traitsIcESaIcEEEE5resetEPS7_
	.type	_ZN7testing8internal10scoped_ptrINSt7__cxx1112basic_stringIcSt11char_traitsIcESaIcEEEE5resetEPS7_, @function
_ZN7testing8internal10scoped_ptrINSt7__cxx1112basic_stringIcSt11char_traitsIcESaIcEEEE5resetEPS7_:
.LFB4587:
	.loc 7 1170 0
	.cfi_startproc
	push	rbp	#
	.cfi_def_cfa_offset 16
	.cfi_offset 6, -16
	mov	rbp, rsp	#,
	.cfi_def_cfa_register 6
	push	rbx	#
	sub	rsp, 24	#,
	.cfi_offset 3, -24
	mov	QWORD PTR -24[rbp], rdi	# this, this
	mov	QWORD PTR -32[rbp], rsi	# p, p
	.loc 7 1171 0
	mov	rax, QWORD PTR -24[rbp]	# tmp90, this
	mov	rax, QWORD PTR [rax]	# _5, this_4(D)->ptr_
	cmp	rax, QWORD PTR -32[rbp]	# _5, p
	je	.L194	#,
	.loc 7 1172 0
	mov	edi, 1	#,
	call	_ZN7testing8internal6IsTrueEb@PLT	#
	test	al, al	# _8
	je	.L193	#,
	.loc 7 1173 0
	mov	rax, QWORD PTR -24[rbp]	# tmp91, this
	mov	rbx, QWORD PTR [rax]	# _10, this_4(D)->ptr_
	test	rbx, rbx	# _10
	je	.L193	#,
	.loc 7 1173 0 is_stmt 0 discriminator 1
	mov	rdi, rbx	#, _10
	call	_ZNSt7__cxx1112basic_stringIcSt11char_traitsIcESaIcEED1Ev@PLT	#
	mov	esi, 32	#,
	mov	rdi, rbx	#, _10
	call	_ZdlPvm@PLT	#
.L193:
	.loc 7 1175 0 is_stmt 1
	mov	rax, QWORD PTR -24[rbp]	# tmp92, this
	mov	rdx, QWORD PTR -32[rbp]	# tmp93, p
	mov	QWORD PTR [rax], rdx	# this_4(D)->ptr_, tmp93
.L194:
	.loc 7 1177 0
	nop
	add	rsp, 24	#,
	pop	rbx	#
	pop	rbp	#
	.cfi_def_cfa 7, 8
	ret
	.cfi_endproc
.LFE4587:
	.size	_ZN7testing8internal10scoped_ptrINSt7__cxx1112basic_stringIcSt11char_traitsIcESaIcEEEE5resetEPS7_, .-_ZN7testing8internal10scoped_ptrINSt7__cxx1112basic_stringIcSt11char_traitsIcESaIcEEEE5resetEPS7_
	.section	.text._Z6searchIiEmPT_mS0_,"axG",@progbits,_Z6searchIiEmPT_mS0_,comdat
	.weak	_Z6searchIiEmPT_mS0_
	.type	_Z6searchIiEmPT_mS0_, @function
_Z6searchIiEmPT_mS0_:
.LFB4591:
	.file 8 "binary_search.cpp"
	.loc 8 22 0
	.cfi_startproc
	push	rbp	#
	.cfi_def_cfa_offset 16
	.cfi_offset 6, -16
	mov	rbp, rsp	#,
	.cfi_def_cfa_register 6
	sub	rsp, 32	#,
	mov	QWORD PTR -8[rbp], rdi	# arr, arr
	mov	QWORD PTR -16[rbp], rsi	# length, length
	mov	DWORD PTR -20[rbp], edx	# value, value
	.loc 8 24 0
	mov	rax, QWORD PTR -16[rbp]	# tmp90, length
	lea	rsi, -1[rax]	# _2,
	mov	edx, DWORD PTR -20[rbp]	# tmp91, value
	mov	rax, QWORD PTR -8[rbp]	# tmp92, arr
	mov	ecx, edx	#, tmp91
	mov	rdx, rsi	#, _2
	mov	esi, 0	#,
	mov	rdi, rax	#, tmp92
	call	_Z7_searchIiEmPT_mmS0_	#
	.loc 8 25 0
	leave
	.cfi_def_cfa 7, 8
	ret
	.cfi_endproc
.LFE4591:
	.size	_Z6searchIiEmPT_mS0_, .-_Z6searchIiEmPT_mS0_
	.section	.text._ZN7testing8internal8EqHelperILb0EE7CompareImiEENS_15AssertionResultEPKcS6_RKT_RKT0_,"axG",@progbits,_ZN7testing8internal8EqHelperILb0EE7CompareImiEENS_15AssertionResultEPKcS6_RKT_RKT0_,comdat
	.weak	_ZN7testing8internal8EqHelperILb0EE7CompareImiEENS_15AssertionResultEPKcS6_RKT_RKT0_
	.type	_ZN7testing8internal8EqHelperILb0EE7CompareImiEENS_15AssertionResultEPKcS6_RKT_RKT0_, @function
_ZN7testing8internal8EqHelperILb0EE7CompareImiEENS_15AssertionResultEPKcS6_RKT_RKT0_:
.LFB4592:
	.loc 4 1417 0
	.cfi_startproc
	push	rbp	#
	.cfi_def_cfa_offset 16
	.cfi_offset 6, -16
	mov	rbp, rsp	#,
	.cfi_def_cfa_register 6
	sub	rsp, 48	#,
	mov	QWORD PTR -8[rbp], rdi	# .result_ptr, .result_ptr
	mov	QWORD PTR -16[rbp], rsi	# lhs_expression, lhs_expression
	mov	QWORD PTR -24[rbp], rdx	# rhs_expression, rhs_expression
	mov	QWORD PTR -32[rbp], rcx	# lhs, lhs
	mov	QWORD PTR -40[rbp], r8	# rhs, rhs
	.loc 4 1421 0
	mov	rax, QWORD PTR -8[rbp]	# tmp87, <retval>
	mov	rdi, QWORD PTR -40[rbp]	# tmp88, rhs
	mov	rcx, QWORD PTR -32[rbp]	# tmp89, lhs
	mov	rdx, QWORD PTR -24[rbp]	# tmp90, rhs_expression
	mov	rsi, QWORD PTR -16[rbp]	# tmp91, lhs_expression
	mov	r8, rdi	#, tmp88
	mov	rdi, rax	#, tmp87
	call	_ZN7testing8internal11CmpHelperEQImiEENS_15AssertionResultEPKcS4_RKT_RKT0_	#
	.loc 4 1422 0
	mov	rax, QWORD PTR -8[rbp]	#, <retval>
	leave
	.cfi_def_cfa 7, 8
	ret
	.cfi_endproc
.LFE4592:
	.size	_ZN7testing8internal8EqHelperILb0EE7CompareImiEENS_15AssertionResultEPKcS6_RKT_RKT0_, .-_ZN7testing8internal8EqHelperILb0EE7CompareImiEENS_15AssertionResultEPKcS6_RKT_RKT0_
	.section	.text._ZN7testing8internal10scoped_ptrINSt7__cxx1112basic_stringIcSt11char_traitsIcESaIcEEEED2Ev,"axG",@progbits,_ZN7testing8internal10scoped_ptrINSt7__cxx1112basic_stringIcSt11char_traitsIcESaIcEEEED5Ev,comdat
	.align 2
	.weak	_ZN7testing8internal10scoped_ptrINSt7__cxx1112basic_stringIcSt11char_traitsIcESaIcEEEED2Ev
	.type	_ZN7testing8internal10scoped_ptrINSt7__cxx1112basic_stringIcSt11char_traitsIcESaIcEEEED2Ev, @function
_ZN7testing8internal10scoped_ptrINSt7__cxx1112basic_stringIcSt11char_traitsIcESaIcEEEED2Ev:
.LFB4594:
	.loc 7 1158 0
	.cfi_startproc
	.cfi_personality 0x9b,DW.ref.__gxx_personality_v0
	.cfi_lsda 0x1b,.LLSDA4594
	push	rbp	#
	.cfi_def_cfa_offset 16
	.cfi_offset 6, -16
	mov	rbp, rsp	#,
	.cfi_def_cfa_register 6
	sub	rsp, 16	#,
	mov	QWORD PTR -8[rbp], rdi	# this, this
.LBB80:
	.loc 7 1158 0
	mov	rax, QWORD PTR -8[rbp]	# tmp87, this
	mov	esi, 0	#,
	mov	rdi, rax	#, tmp87
	call	_ZN7testing8internal10scoped_ptrINSt7__cxx1112basic_stringIcSt11char_traitsIcESaIcEEEE5resetEPS7_	#
.LBE80:
	nop
	leave
	.cfi_def_cfa 7, 8
	ret
	.cfi_endproc
.LFE4594:
	.section	.gcc_except_table
.LLSDA4594:
	.byte	0xff
	.byte	0xff
	.byte	0x1
	.uleb128 .LLSDACSE4594-.LLSDACSB4594
.LLSDACSB4594:
.LLSDACSE4594:
	.section	.text._ZN7testing8internal10scoped_ptrINSt7__cxx1112basic_stringIcSt11char_traitsIcESaIcEEEED2Ev,"axG",@progbits,_ZN7testing8internal10scoped_ptrINSt7__cxx1112basic_stringIcSt11char_traitsIcESaIcEEEED5Ev,comdat
	.size	_ZN7testing8internal10scoped_ptrINSt7__cxx1112basic_stringIcSt11char_traitsIcESaIcEEEED2Ev, .-_ZN7testing8internal10scoped_ptrINSt7__cxx1112basic_stringIcSt11char_traitsIcESaIcEEEED2Ev
	.weak	_ZN7testing8internal10scoped_ptrINSt7__cxx1112basic_stringIcSt11char_traitsIcESaIcEEEED1Ev
	.set	_ZN7testing8internal10scoped_ptrINSt7__cxx1112basic_stringIcSt11char_traitsIcESaIcEEEED1Ev,_ZN7testing8internal10scoped_ptrINSt7__cxx1112basic_stringIcSt11char_traitsIcESaIcEEEED2Ev
	.section	.text._Z6searchIdEmPT_mS0_,"axG",@progbits,_Z6searchIdEmPT_mS0_,comdat
	.weak	_Z6searchIdEmPT_mS0_
	.type	_Z6searchIdEmPT_mS0_, @function
_Z6searchIdEmPT_mS0_:
.LFB4596:
	.loc 8 22 0
	.cfi_startproc
	push	rbp	#
	.cfi_def_cfa_offset 16
	.cfi_offset 6, -16
	mov	rbp, rsp	#,
	.cfi_def_cfa_register 6
	sub	rsp, 32	#,
	mov	QWORD PTR -8[rbp], rdi	# arr, arr
	mov	QWORD PTR -16[rbp], rsi	# length, length
	movsd	QWORD PTR -24[rbp], xmm0	# value, value
	.loc 8 24 0
	mov	rax, QWORD PTR -16[rbp]	# tmp90, length
	lea	rcx, -1[rax]	# _2,
	mov	rdx, QWORD PTR -24[rbp]	# tmp91, value
	mov	rax, QWORD PTR -8[rbp]	# tmp92, arr
	mov	QWORD PTR -32[rbp], rdx	# %sfp, tmp91
	movsd	xmm0, QWORD PTR -32[rbp]	#, %sfp
	mov	rdx, rcx	#, _2
	mov	esi, 0	#,
	mov	rdi, rax	#, tmp92
	call	_Z7_searchIdEmPT_mmS0_	#
	.loc 8 25 0
	leave
	.cfi_def_cfa 7, 8
	ret
	.cfi_endproc
.LFE4596:
	.size	_Z6searchIdEmPT_mS0_, .-_Z6searchIdEmPT_mS0_
	.section	.text._ZN7testing8internal10scoped_ptrINSt7__cxx1118basic_stringstreamIcSt11char_traitsIcESaIcEEEE5resetEPS7_,"axG",@progbits,_ZN7testing8internal10scoped_ptrINSt7__cxx1118basic_stringstreamIcSt11char_traitsIcESaIcEEEE5resetEPS7_,comdat
	.align 2
	.weak	_ZN7testing8internal10scoped_ptrINSt7__cxx1118basic_stringstreamIcSt11char_traitsIcESaIcEEEE5resetEPS7_
	.type	_ZN7testing8internal10scoped_ptrINSt7__cxx1118basic_stringstreamIcSt11char_traitsIcESaIcEEEE5resetEPS7_, @function
_ZN7testing8internal10scoped_ptrINSt7__cxx1118basic_stringstreamIcSt11char_traitsIcESaIcEEEE5resetEPS7_:
.LFB4713:
	.loc 7 1170 0
	.cfi_startproc
	push	rbp	#
	.cfi_def_cfa_offset 16
	.cfi_offset 6, -16
	mov	rbp, rsp	#,
	.cfi_def_cfa_register 6
	sub	rsp, 16	#,
	mov	QWORD PTR -8[rbp], rdi	# this, this
	mov	QWORD PTR -16[rbp], rsi	# p, p
	.loc 7 1171 0
	mov	rax, QWORD PTR -8[rbp]	# tmp96, this
	mov	rax, QWORD PTR [rax]	# _5, this_4(D)->ptr_
	cmp	rax, QWORD PTR -16[rbp]	# _5, p
	je	.L205	#,
	.loc 7 1172 0
	mov	edi, 1	#,
	call	_ZN7testing8internal6IsTrueEb@PLT	#
	test	al, al	# _8
	je	.L204	#,
	.loc 7 1173 0
	mov	rax, QWORD PTR -8[rbp]	# tmp97, this
	mov	rax, QWORD PTR [rax]	# _10, this_4(D)->ptr_
	test	rax, rax	# _10
	je	.L204	#,
	.loc 7 1173 0 is_stmt 0 discriminator 1
	mov	rax, QWORD PTR -8[rbp]	# tmp99, this
	mov	rax, QWORD PTR [rax]	# _12, this_4(D)->ptr_
	mov	rax, QWORD PTR [rax]	# _13, _12->D.43656.D.42342._vptr.basic_istream
	add	rax, 8	# _14,
	mov	rax, QWORD PTR [rax]	# _15, *_14
	mov	rdx, QWORD PTR -8[rbp]	# tmp100, this
	mov	rdx, QWORD PTR [rdx]	# _16, this_4(D)->ptr_
	mov	rdi, rdx	#, _16
	call	rax	# _15
.LVL0:
.L204:
	.loc 7 1175 0 is_stmt 1
	mov	rax, QWORD PTR -8[rbp]	# tmp101, this
	mov	rdx, QWORD PTR -16[rbp]	# tmp102, p
	mov	QWORD PTR [rax], rdx	# this_4(D)->ptr_, tmp102
.L205:
	.loc 7 1177 0
	nop
	leave
	.cfi_def_cfa 7, 8
	ret
	.cfi_endproc
.LFE4713:
	.size	_ZN7testing8internal10scoped_ptrINSt7__cxx1118basic_stringstreamIcSt11char_traitsIcESaIcEEEE5resetEPS7_, .-_ZN7testing8internal10scoped_ptrINSt7__cxx1118basic_stringstreamIcSt11char_traitsIcESaIcEEEE5resetEPS7_
	.text
	.type	_Z7_searchIiEmPT_mmS0_, @function
_Z7_searchIiEmPT_mmS0_:
.LFB4800:
	.loc 8 2 0
	.cfi_startproc
	.cfi_personality 0x9b,DW.ref.__gxx_personality_v0
	.cfi_lsda 0x1b,.LLSDA4800
	push	rbp	#
	.cfi_def_cfa_offset 16
	.cfi_offset 6, -16
	mov	rbp, rsp	#,
	.cfi_def_cfa_register 6
	push	r12	#
	push	rbx	#
	sub	rsp, 48	#,
	.cfi_offset 12, -24
	.cfi_offset 3, -32
	mov	QWORD PTR -40[rbp], rdi	# arr, arr
	mov	QWORD PTR -48[rbp], rsi	# start, start
	mov	QWORD PTR -56[rbp], rdx	# end, end
	mov	DWORD PTR -60[rbp], ecx	# value, value
	.loc 8 4 0
	mov	rax, QWORD PTR -48[rbp]	# tmp99, start
	cmp	rax, QWORD PTR -56[rbp]	# tmp99, end
	jne	.L207	#,
	.loc 8 6 0
	mov	rax, QWORD PTR -48[rbp]	# tmp100, start
	lea	rdx, 0[0+rax*4]	# _7,
	mov	rax, QWORD PTR -40[rbp]	# tmp101, arr
	add	rax, rdx	# _9, _7
	mov	eax, DWORD PTR [rax]	# _11, *_9
	cmp	eax, DWORD PTR -60[rbp]	# _11, value
	je	.L208	#,
	.loc 8 7 0
	mov	edi, 16	#,
	call	__cxa_allocate_exception@PLT	#
	mov	rbx, rax	# _15, tmp102
	mov	rdi, rbx	#, _15
.LEHB79:
	call	_ZN19SearchValueNotFoundC1Ev	#
.LEHE79:
	.loc 8 7 0 is_stmt 0 discriminator 2
	lea	rdx, _ZN19SearchValueNotFoundD1Ev[rip]	#,
	lea	rsi, _ZTI19SearchValueNotFound[rip]	#,
	mov	rdi, rbx	#, _15
.LEHB80:
	call	__cxa_throw@PLT	#
.L208:
	.loc 8 9 0 is_stmt 1
	mov	rax, QWORD PTR -48[rbp]	# iftmp.33_2, start
	jmp	.L214	#
.L207:
	.loc 8 12 0
	mov	rdx, QWORD PTR -48[rbp]	# tmp103, start
	mov	rax, QWORD PTR -56[rbp]	# tmp104, end
	add	rax, rdx	# _19, tmp103
	shr	rax	# tmp105
	mov	QWORD PTR -24[rbp], rax	# middle, tmp105
	.loc 8 15 0
	mov	rax, QWORD PTR -24[rbp]	# tmp106, middle
	lea	rdx, 0[0+rax*4]	# _21,
	mov	rax, QWORD PTR -40[rbp]	# tmp107, arr
	add	rax, rdx	# _22, _21
	mov	eax, DWORD PTR [rax]	# _23, *_22
	.loc 8 16 0
	cmp	eax, DWORD PTR -60[rbp]	# _23, value
	jl	.L210	#,
	.loc 8 16 0 is_stmt 0 discriminator 1
	mov	ecx, DWORD PTR -60[rbp]	# tmp108, value
	mov	rdx, QWORD PTR -24[rbp]	# tmp109, middle
	mov	rsi, QWORD PTR -48[rbp]	# tmp110, start
	mov	rax, QWORD PTR -40[rbp]	# tmp111, arr
	mov	rdi, rax	#, tmp111
	call	_Z7_searchIiEmPT_mmS0_	#
	.loc 8 17 0 is_stmt 1 discriminator 1
	jmp	.L215	#
.L210:
	.loc 8 17 0 is_stmt 0 discriminator 2
	mov	rax, QWORD PTR -24[rbp]	# tmp112, middle
	lea	rsi, 1[rax]	# _27,
	.loc 8 16 0 is_stmt 1 discriminator 2
	mov	ecx, DWORD PTR -60[rbp]	# tmp113, value
	mov	rdx, QWORD PTR -56[rbp]	# tmp114, end
	mov	rax, QWORD PTR -40[rbp]	# tmp115, arr
	mov	rdi, rax	#, tmp115
	call	_Z7_searchIiEmPT_mmS0_	#
.L215:
	.loc 8 17 0
	nop
	jmp	.L214	#
.L213:
	mov	r12, rax	# tmp117,
	.loc 8 7 0
	mov	rdi, rbx	#, _15
	call	__cxa_free_exception@PLT	#
	mov	rax, r12	# D.115995, tmp117
	mov	rdi, rax	#, D.115995
	call	_Unwind_Resume@PLT	#
.LEHE80:
.L214:
	.loc 8 18 0
	add	rsp, 48	#,
	pop	rbx	#
	pop	r12	#
	pop	rbp	#
	.cfi_def_cfa 7, 8
	ret
	.cfi_endproc
.LFE4800:
	.section	.gcc_except_table
.LLSDA4800:
	.byte	0xff
	.byte	0xff
	.byte	0x1
	.uleb128 .LLSDACSE4800-.LLSDACSB4800
.LLSDACSB4800:
	.uleb128 .LEHB79-.LFB4800
	.uleb128 .LEHE79-.LEHB79
	.uleb128 .L213-.LFB4800
	.uleb128 0
	.uleb128 .LEHB80-.LFB4800
	.uleb128 .LEHE80-.LEHB80
	.uleb128 0
	.uleb128 0
.LLSDACSE4800:
	.text
	.size	_Z7_searchIiEmPT_mmS0_, .-_Z7_searchIiEmPT_mmS0_
	.section	.text._ZN7testing8internal11CmpHelperEQImiEENS_15AssertionResultEPKcS4_RKT_RKT0_,"axG",@progbits,_ZN7testing8internal11CmpHelperEQImiEENS_15AssertionResultEPKcS4_RKT_RKT0_,comdat
	.weak	_ZN7testing8internal11CmpHelperEQImiEENS_15AssertionResultEPKcS4_RKT_RKT0_
	.type	_ZN7testing8internal11CmpHelperEQImiEENS_15AssertionResultEPKcS4_RKT_RKT0_, @function
_ZN7testing8internal11CmpHelperEQImiEENS_15AssertionResultEPKcS4_RKT_RKT0_:
.LFB4804:
	.loc 4 1389 0
	.cfi_startproc
	push	rbp	#
	.cfi_def_cfa_offset 16
	.cfi_offset 6, -16
	mov	rbp, rsp	#,
	.cfi_def_cfa_register 6
	sub	rsp, 48	#,
	mov	QWORD PTR -8[rbp], rdi	# .result_ptr, .result_ptr
	mov	QWORD PTR -16[rbp], rsi	# lhs_expression, lhs_expression
	mov	QWORD PTR -24[rbp], rdx	# rhs_expression, rhs_expression
	mov	QWORD PTR -32[rbp], rcx	# lhs, lhs
	mov	QWORD PTR -40[rbp], r8	# rhs, rhs
	.loc 4 1393 0
	mov	rax, QWORD PTR -32[rbp]	# tmp90, lhs
	mov	rdx, QWORD PTR [rax]	# _4, *lhs_3(D)
	mov	rax, QWORD PTR -40[rbp]	# tmp91, rhs
	mov	eax, DWORD PTR [rax]	# _6, *rhs_5(D)
	cdqe
	cmp	rdx, rax	# _4, _7
	jne	.L217	#,
	.loc 4 1394 0
	mov	rax, QWORD PTR -8[rbp]	# tmp92, <retval>
	mov	rdi, rax	#, tmp92
	call	_ZN7testing16AssertionSuccessEv@PLT	#
	jmp	.L216	#
.L217:
	.loc 4 1397 0
	mov	rax, QWORD PTR -8[rbp]	# tmp93, <retval>
	mov	rdi, QWORD PTR -40[rbp]	# tmp94, rhs
	mov	rcx, QWORD PTR -32[rbp]	# tmp95, lhs
	mov	rdx, QWORD PTR -24[rbp]	# tmp96, rhs_expression
	mov	rsi, QWORD PTR -16[rbp]	# tmp97, lhs_expression
	mov	r8, rdi	#, tmp94
	mov	rdi, rax	#, tmp93
	call	_ZN7testing8internal18CmpHelperEQFailureImiEENS_15AssertionResultEPKcS4_RKT_RKT0_	#
.L216:
	.loc 4 1398 0
	mov	rax, QWORD PTR -8[rbp]	#, <retval>
	leave
	.cfi_def_cfa 7, 8
	ret
	.cfi_endproc
.LFE4804:
	.size	_ZN7testing8internal11CmpHelperEQImiEENS_15AssertionResultEPKcS4_RKT_RKT0_, .-_ZN7testing8internal11CmpHelperEQImiEENS_15AssertionResultEPKcS4_RKT_RKT0_
	.text
	.type	_Z7_searchIdEmPT_mmS0_, @function
_Z7_searchIdEmPT_mmS0_:
.LFB4805:
	.loc 8 2 0
	.cfi_startproc
	.cfi_personality 0x9b,DW.ref.__gxx_personality_v0
	.cfi_lsda 0x1b,.LLSDA4805
	push	rbp	#
	.cfi_def_cfa_offset 16
	.cfi_offset 6, -16
	mov	rbp, rsp	#,
	.cfi_def_cfa_register 6
	push	r12	#
	push	rbx	#
	sub	rsp, 64	#,
	.cfi_offset 12, -24
	.cfi_offset 3, -32
	mov	QWORD PTR -40[rbp], rdi	# arr, arr
	mov	QWORD PTR -48[rbp], rsi	# start, start
	mov	QWORD PTR -56[rbp], rdx	# end, end
	movsd	QWORD PTR -64[rbp], xmm0	# value, value
	.loc 8 4 0
	mov	rax, QWORD PTR -48[rbp]	# tmp99, start
	cmp	rax, QWORD PTR -56[rbp]	# tmp99, end
	jne	.L220	#,
	.loc 8 6 0
	mov	rax, QWORD PTR -48[rbp]	# tmp100, start
	lea	rdx, 0[0+rax*8]	# _7,
	mov	rax, QWORD PTR -40[rbp]	# tmp101, arr
	add	rax, rdx	# _9, _7
	movsd	xmm0, QWORD PTR [rax]	# _11, *_9
	ucomisd	xmm0, QWORD PTR -64[rbp]	# _11, value
	jp	.L229	#,
	ucomisd	xmm0, QWORD PTR -64[rbp]	# _11, value
	je	.L231	#,
.L229:
	.loc 8 7 0
	mov	edi, 16	#,
	call	__cxa_allocate_exception@PLT	#
	mov	rbx, rax	# _15, tmp102
	mov	rdi, rbx	#, _15
.LEHB81:
	call	_ZN19SearchValueNotFoundC1Ev	#
.LEHE81:
	.loc 8 7 0 is_stmt 0 discriminator 2
	lea	rdx, _ZN19SearchValueNotFoundD1Ev[rip]	#,
	lea	rsi, _ZTI19SearchValueNotFound[rip]	#,
	mov	rdi, rbx	#, _15
.LEHB82:
	call	__cxa_throw@PLT	#
.L231:
	.loc 8 9 0 is_stmt 1
	mov	rax, QWORD PTR -48[rbp]	# iftmp.44_2, start
	jmp	.L233	#
.L220:
	.loc 8 12 0
	mov	rdx, QWORD PTR -48[rbp]	# tmp103, start
	mov	rax, QWORD PTR -56[rbp]	# tmp104, end
	add	rax, rdx	# _19, tmp103
	shr	rax	# tmp105
	mov	QWORD PTR -24[rbp], rax	# middle, tmp105
	.loc 8 15 0
	mov	rax, QWORD PTR -24[rbp]	# tmp106, middle
	lea	rdx, 0[0+rax*8]	# _21,
	mov	rax, QWORD PTR -40[rbp]	# tmp107, arr
	add	rax, rdx	# _22, _21
	movsd	xmm0, QWORD PTR [rax]	# _23, *_22
	.loc 8 16 0
	ucomisd	xmm0, QWORD PTR -64[rbp]	# _23, value
	jb	.L232	#,
	.loc 8 16 0 is_stmt 0 discriminator 1
	mov	rsi, QWORD PTR -64[rbp]	# tmp108, value
	mov	rdx, QWORD PTR -24[rbp]	# tmp109, middle
	mov	rcx, QWORD PTR -48[rbp]	# tmp110, start
	mov	rax, QWORD PTR -40[rbp]	# tmp111, arr
	mov	QWORD PTR -72[rbp], rsi	# %sfp, tmp108
	movsd	xmm0, QWORD PTR -72[rbp]	#, %sfp
	mov	rsi, rcx	#, tmp110
	mov	rdi, rax	#, tmp111
	call	_Z7_searchIdEmPT_mmS0_	#
	.loc 8 17 0 is_stmt 1 discriminator 1
	jmp	.L234	#
.L232:
	.loc 8 17 0 is_stmt 0 discriminator 2
	mov	rax, QWORD PTR -24[rbp]	# tmp112, middle
	lea	rsi, 1[rax]	# _27,
	.loc 8 16 0 is_stmt 1 discriminator 2
	mov	rcx, QWORD PTR -64[rbp]	# tmp113, value
	mov	rdx, QWORD PTR -56[rbp]	# tmp114, end
	mov	rax, QWORD PTR -40[rbp]	# tmp115, arr
	mov	QWORD PTR -72[rbp], rcx	# %sfp, tmp113
	movsd	xmm0, QWORD PTR -72[rbp]	#, %sfp
	mov	rdi, rax	#, tmp115
	call	_Z7_searchIdEmPT_mmS0_	#
.L234:
	.loc 8 17 0
	nop
	jmp	.L233	#
.L228:
	mov	r12, rax	# tmp117,
	.loc 8 7 0
	mov	rdi, rbx	#, _15
	call	__cxa_free_exception@PLT	#
	mov	rax, r12	# D.115999, tmp117
	mov	rdi, rax	#, D.115999
	call	_Unwind_Resume@PLT	#
.LEHE82:
.L233:
	.loc 8 18 0
	add	rsp, 64	#,
	pop	rbx	#
	pop	r12	#
	pop	rbp	#
	.cfi_def_cfa 7, 8
	ret
	.cfi_endproc
.LFE4805:
	.section	.gcc_except_table
.LLSDA4805:
	.byte	0xff
	.byte	0xff
	.byte	0x1
	.uleb128 .LLSDACSE4805-.LLSDACSB4805
.LLSDACSB4805:
	.uleb128 .LEHB81-.LFB4805
	.uleb128 .LEHE81-.LEHB81
	.uleb128 .L228-.LFB4805
	.uleb128 0
	.uleb128 .LEHB82-.LFB4805
	.uleb128 .LEHE82-.LEHB82
	.uleb128 0
	.uleb128 0
.LLSDACSE4805:
	.text
	.size	_Z7_searchIdEmPT_mmS0_, .-_Z7_searchIdEmPT_mmS0_
	.section	.text._ZN7testing8internal18CmpHelperEQFailureImiEENS_15AssertionResultEPKcS4_RKT_RKT0_,"axG",@progbits,_ZN7testing8internal18CmpHelperEQFailureImiEENS_15AssertionResultEPKcS4_RKT_RKT0_,comdat
	.weak	_ZN7testing8internal18CmpHelperEQFailureImiEENS_15AssertionResultEPKcS4_RKT_RKT0_
	.type	_ZN7testing8internal18CmpHelperEQFailureImiEENS_15AssertionResultEPKcS4_RKT_RKT0_, @function
_ZN7testing8internal18CmpHelperEQFailureImiEENS_15AssertionResultEPKcS4_RKT_RKT0_:
.LFB4932:
	.loc 4 1377 0
	.cfi_startproc
	.cfi_personality 0x9b,DW.ref.__gxx_personality_v0
	.cfi_lsda 0x1b,.LLSDA4932
	push	rbp	#
	.cfi_def_cfa_offset 16
	.cfi_offset 6, -16
	mov	rbp, rsp	#,
	.cfi_def_cfa_register 6
	push	rbx	#
	sub	rsp, 120	#,
	.cfi_offset 3, -24
	mov	QWORD PTR -88[rbp], rdi	# .result_ptr, .result_ptr
	mov	QWORD PTR -96[rbp], rsi	# lhs_expression, lhs_expression
	mov	QWORD PTR -104[rbp], rdx	# rhs_expression, rhs_expression
	mov	QWORD PTR -112[rbp], rcx	# lhs, lhs
	mov	QWORD PTR -120[rbp], r8	# rhs, rhs
	.loc 4 1384 0
	lea	rax, -80[rbp]	# tmp88,
	mov	rdx, QWORD PTR -112[rbp]	# tmp89, lhs
	mov	rcx, QWORD PTR -120[rbp]	# tmp90, rhs
	mov	rsi, rcx	#, tmp90
	mov	rdi, rax	#, tmp88
.LEHB83:
	call	_ZN7testing8internal33FormatForComparisonFailureMessageIimEENSt7__cxx1112basic_stringIcSt11char_traitsIcESaIcEEERKT_RKT0_	#
.LEHE83:
	lea	rax, -48[rbp]	# tmp91,
	mov	rdx, QWORD PTR -120[rbp]	# tmp92, rhs
	mov	rcx, QWORD PTR -112[rbp]	# tmp93, lhs
	mov	rsi, rcx	#, tmp93
	mov	rdi, rax	#, tmp91
.LEHB84:
	call	_ZN7testing8internal33FormatForComparisonFailureMessageImiEENSt7__cxx1112basic_stringIcSt11char_traitsIcESaIcEEERKT_RKT0_	#
.LEHE84:
	.loc 4 1384 0 is_stmt 0 discriminator 2
	mov	rax, QWORD PTR -88[rbp]	# tmp94, <retval>
	lea	rdi, -80[rbp]	# tmp95,
	lea	rcx, -48[rbp]	# tmp96,
	mov	rdx, QWORD PTR -104[rbp]	# tmp97, rhs_expression
	mov	rsi, QWORD PTR -96[rbp]	# tmp98, lhs_expression
	mov	r9d, 0	#,
	mov	r8, rdi	#, tmp95
	mov	rdi, rax	#, tmp94
.LEHB85:
	call	_ZN7testing8internal9EqFailureEPKcS2_RKNSt7__cxx1112basic_stringIcSt11char_traitsIcESaIcEEESA_b@PLT	#
.LEHE85:
	.loc 4 1384 0
	lea	rax, -48[rbp]	# tmp99,
	mov	rdi, rax	#, tmp99
	call	_ZNSt7__cxx1112basic_stringIcSt11char_traitsIcESaIcEED1Ev@PLT	#
	lea	rax, -80[rbp]	# tmp100,
	mov	rdi, rax	#, tmp100
	call	_ZNSt7__cxx1112basic_stringIcSt11char_traitsIcESaIcEED1Ev@PLT	#
	jmp	.L241	#
.L240:
	mov	rbx, rax	# tmp103,
	lea	rax, -48[rbp]	# tmp101,
	mov	rdi, rax	#, tmp101
	call	_ZNSt7__cxx1112basic_stringIcSt11char_traitsIcESaIcEED1Ev@PLT	#
	jmp	.L238	#
.L239:
	mov	rbx, rax	# tmp102,
.L238:
	.loc 4 1384 0 discriminator 1
	lea	rax, -80[rbp]	# tmp106,
	mov	rdi, rax	#, tmp106
	call	_ZNSt7__cxx1112basic_stringIcSt11char_traitsIcESaIcEED1Ev@PLT	#
	mov	rax, rbx	# D.116000, tmp102
	mov	rdi, rax	#, D.116000
.LEHB86:
	call	_Unwind_Resume@PLT	#
.LEHE86:
.L241:
	.loc 4 1385 0 is_stmt 1
	mov	rax, QWORD PTR -88[rbp]	#, <retval>
	add	rsp, 120	#,
	pop	rbx	#
	pop	rbp	#
	.cfi_def_cfa 7, 8
	ret
	.cfi_endproc
.LFE4932:
	.section	.gcc_except_table
.LLSDA4932:
	.byte	0xff
	.byte	0xff
	.byte	0x1
	.uleb128 .LLSDACSE4932-.LLSDACSB4932
.LLSDACSB4932:
	.uleb128 .LEHB83-.LFB4932
	.uleb128 .LEHE83-.LEHB83
	.uleb128 0
	.uleb128 0
	.uleb128 .LEHB84-.LFB4932
	.uleb128 .LEHE84-.LEHB84
	.uleb128 .L239-.LFB4932
	.uleb128 0
	.uleb128 .LEHB85-.LFB4932
	.uleb128 .LEHE85-.LEHB85
	.uleb128 .L240-.LFB4932
	.uleb128 0
	.uleb128 .LEHB86-.LFB4932
	.uleb128 .LEHE86-.LEHB86
	.uleb128 0
	.uleb128 0
.LLSDACSE4932:
	.section	.text._ZN7testing8internal18CmpHelperEQFailureImiEENS_15AssertionResultEPKcS4_RKT_RKT0_,"axG",@progbits,_ZN7testing8internal18CmpHelperEQFailureImiEENS_15AssertionResultEPKcS4_RKT_RKT0_,comdat
	.size	_ZN7testing8internal18CmpHelperEQFailureImiEENS_15AssertionResultEPKcS4_RKT_RKT0_, .-_ZN7testing8internal18CmpHelperEQFailureImiEENS_15AssertionResultEPKcS4_RKT_RKT0_
	.section	.text._ZN7testing8internal33FormatForComparisonFailureMessageImiEENSt7__cxx1112basic_stringIcSt11char_traitsIcESaIcEEERKT_RKT0_,"axG",@progbits,_ZN7testing8internal33FormatForComparisonFailureMessageImiEENSt7__cxx1112basic_stringIcSt11char_traitsIcESaIcEEERKT_RKT0_,comdat
	.weak	_ZN7testing8internal33FormatForComparisonFailureMessageImiEENSt7__cxx1112basic_stringIcSt11char_traitsIcESaIcEEERKT_RKT0_
	.type	_ZN7testing8internal33FormatForComparisonFailureMessageImiEENSt7__cxx1112basic_stringIcSt11char_traitsIcESaIcEEERKT_RKT0_, @function
_ZN7testing8internal33FormatForComparisonFailureMessageImiEENSt7__cxx1112basic_stringIcSt11char_traitsIcESaIcEEERKT_RKT0_:
.LFB5013:
	.file 9 "/opt/gtest/googletest/include/gtest/gtest-printers.h"
	.loc 9 350 0
	.cfi_startproc
	push	rbp	#
	.cfi_def_cfa_offset 16
	.cfi_offset 6, -16
	mov	rbp, rsp	#,
	.cfi_def_cfa_register 6
	sub	rsp, 32	#,
	mov	QWORD PTR -8[rbp], rdi	# .result_ptr, .result_ptr
	mov	QWORD PTR -16[rbp], rsi	# value, value
	mov	QWORD PTR -24[rbp], rdx	# D.112637, D.112637
	.loc 9 352 0
	mov	rax, QWORD PTR -8[rbp]	# tmp87, <retval>
	mov	rdx, QWORD PTR -16[rbp]	# tmp88, value
	mov	rsi, rdx	#, tmp88
	mov	rdi, rax	#, tmp87
	call	_ZN7testing8internal19FormatForComparisonImiE6FormatB5cxx11ERKm	#
	.loc 9 353 0
	mov	rax, QWORD PTR -8[rbp]	#, <retval>
	leave
	.cfi_def_cfa 7, 8
	ret
	.cfi_endproc
.LFE5013:
	.size	_ZN7testing8internal33FormatForComparisonFailureMessageImiEENSt7__cxx1112basic_stringIcSt11char_traitsIcESaIcEEERKT_RKT0_, .-_ZN7testing8internal33FormatForComparisonFailureMessageImiEENSt7__cxx1112basic_stringIcSt11char_traitsIcESaIcEEERKT_RKT0_
	.section	.text._ZN7testing8internal33FormatForComparisonFailureMessageIimEENSt7__cxx1112basic_stringIcSt11char_traitsIcESaIcEEERKT_RKT0_,"axG",@progbits,_ZN7testing8internal33FormatForComparisonFailureMessageIimEENSt7__cxx1112basic_stringIcSt11char_traitsIcESaIcEEERKT_RKT0_,comdat
	.weak	_ZN7testing8internal33FormatForComparisonFailureMessageIimEENSt7__cxx1112basic_stringIcSt11char_traitsIcESaIcEEERKT_RKT0_
	.type	_ZN7testing8internal33FormatForComparisonFailureMessageIimEENSt7__cxx1112basic_stringIcSt11char_traitsIcESaIcEEERKT_RKT0_, @function
_ZN7testing8internal33FormatForComparisonFailureMessageIimEENSt7__cxx1112basic_stringIcSt11char_traitsIcESaIcEEERKT_RKT0_:
.LFB5014:
	.loc 9 350 0
	.cfi_startproc
	push	rbp	#
	.cfi_def_cfa_offset 16
	.cfi_offset 6, -16
	mov	rbp, rsp	#,
	.cfi_def_cfa_register 6
	sub	rsp, 32	#,
	mov	QWORD PTR -8[rbp], rdi	# .result_ptr, .result_ptr
	mov	QWORD PTR -16[rbp], rsi	# value, value
	mov	QWORD PTR -24[rbp], rdx	# D.112641, D.112641
	.loc 9 352 0
	mov	rax, QWORD PTR -8[rbp]	# tmp87, <retval>
	mov	rdx, QWORD PTR -16[rbp]	# tmp88, value
	mov	rsi, rdx	#, tmp88
	mov	rdi, rax	#, tmp87
	call	_ZN7testing8internal19FormatForComparisonIimE6FormatB5cxx11ERKi	#
	.loc 9 353 0
	mov	rax, QWORD PTR -8[rbp]	#, <retval>
	leave
	.cfi_def_cfa 7, 8
	ret
	.cfi_endproc
.LFE5014:
	.size	_ZN7testing8internal33FormatForComparisonFailureMessageIimEENSt7__cxx1112basic_stringIcSt11char_traitsIcESaIcEEERKT_RKT0_, .-_ZN7testing8internal33FormatForComparisonFailureMessageIimEENSt7__cxx1112basic_stringIcSt11char_traitsIcESaIcEEERKT_RKT0_
	.section	.text._ZN7testing8internal19FormatForComparisonImiE6FormatB5cxx11ERKm,"axG",@progbits,_ZN7testing8internal19FormatForComparisonImiE6FormatB5cxx11ERKm,comdat
	.weak	_ZN7testing8internal19FormatForComparisonImiE6FormatB5cxx11ERKm
	.type	_ZN7testing8internal19FormatForComparisonImiE6FormatB5cxx11ERKm, @function
_ZN7testing8internal19FormatForComparisonImiE6FormatB5cxx11ERKm:
.LFB5084:
	.loc 9 276 0
	.cfi_startproc
	push	rbp	#
	.cfi_def_cfa_offset 16
	.cfi_offset 6, -16
	mov	rbp, rsp	#,
	.cfi_def_cfa_register 6
	sub	rsp, 16	#,
	mov	QWORD PTR -8[rbp], rdi	# .result_ptr, .result_ptr
	mov	QWORD PTR -16[rbp], rsi	# value, value
	.loc 9 277 0
	mov	rax, QWORD PTR -8[rbp]	# tmp87, <retval>
	mov	rdx, QWORD PTR -16[rbp]	# tmp88, value
	mov	rsi, rdx	#, tmp88
	mov	rdi, rax	#, tmp87
	call	_ZN7testing13PrintToStringImEENSt7__cxx1112basic_stringIcSt11char_traitsIcESaIcEEERKT_	#
	.loc 9 278 0
	mov	rax, QWORD PTR -8[rbp]	#, <retval>
	leave
	.cfi_def_cfa 7, 8
	ret
	.cfi_endproc
.LFE5084:
	.size	_ZN7testing8internal19FormatForComparisonImiE6FormatB5cxx11ERKm, .-_ZN7testing8internal19FormatForComparisonImiE6FormatB5cxx11ERKm
	.section	.text._ZN7testing8internal19FormatForComparisonIimE6FormatB5cxx11ERKi,"axG",@progbits,_ZN7testing8internal19FormatForComparisonIimE6FormatB5cxx11ERKi,comdat
	.weak	_ZN7testing8internal19FormatForComparisonIimE6FormatB5cxx11ERKi
	.type	_ZN7testing8internal19FormatForComparisonIimE6FormatB5cxx11ERKi, @function
_ZN7testing8internal19FormatForComparisonIimE6FormatB5cxx11ERKi:
.LFB5085:
	.loc 9 276 0
	.cfi_startproc
	push	rbp	#
	.cfi_def_cfa_offset 16
	.cfi_offset 6, -16
	mov	rbp, rsp	#,
	.cfi_def_cfa_register 6
	sub	rsp, 16	#,
	mov	QWORD PTR -8[rbp], rdi	# .result_ptr, .result_ptr
	mov	QWORD PTR -16[rbp], rsi	# value, value
	.loc 9 277 0
	mov	rax, QWORD PTR -8[rbp]	# tmp87, <retval>
	mov	rdx, QWORD PTR -16[rbp]	# tmp88, value
	mov	rsi, rdx	#, tmp88
	mov	rdi, rax	#, tmp87
	call	_ZN7testing13PrintToStringIiEENSt7__cxx1112basic_stringIcSt11char_traitsIcESaIcEEERKT_	#
	.loc 9 278 0
	mov	rax, QWORD PTR -8[rbp]	#, <retval>
	leave
	.cfi_def_cfa 7, 8
	ret
	.cfi_endproc
.LFE5085:
	.size	_ZN7testing8internal19FormatForComparisonIimE6FormatB5cxx11ERKi, .-_ZN7testing8internal19FormatForComparisonIimE6FormatB5cxx11ERKi
	.section	.text._ZN7testing13PrintToStringImEENSt7__cxx1112basic_stringIcSt11char_traitsIcESaIcEEERKT_,"axG",@progbits,_ZN7testing13PrintToStringImEENSt7__cxx1112basic_stringIcSt11char_traitsIcESaIcEEERKT_,comdat
	.weak	_ZN7testing13PrintToStringImEENSt7__cxx1112basic_stringIcSt11char_traitsIcESaIcEEERKT_
	.type	_ZN7testing13PrintToStringImEENSt7__cxx1112basic_stringIcSt11char_traitsIcESaIcEEERKT_, @function
_ZN7testing13PrintToStringImEENSt7__cxx1112basic_stringIcSt11char_traitsIcESaIcEEERKT_:
.LFB5146:
	.loc 9 992 0
	.cfi_startproc
	.cfi_personality 0x9b,DW.ref.__gxx_personality_v0
	.cfi_lsda 0x1b,.LLSDA5146
	push	rbp	#
	.cfi_def_cfa_offset 16
	.cfi_offset 6, -16
	mov	rbp, rsp	#,
	.cfi_def_cfa_register 6
	push	rbx	#
	sub	rsp, 424	#,
	.cfi_offset 3, -24
	mov	QWORD PTR -424[rbp], rdi	# .result_ptr, .result_ptr
	mov	QWORD PTR -432[rbp], rsi	# value, value
	.loc 9 993 0
	mov	esi, 8	#,
	mov	edi, 16	#,
	call	_ZStorSt13_Ios_OpenmodeS_	#
	mov	edx, eax	# _5,
	lea	rax, -416[rbp]	# tmp89,
	mov	esi, edx	#, _5
	mov	rdi, rax	#, tmp89
.LEHB87:
	call	_ZNSt7__cxx1118basic_stringstreamIcSt11char_traitsIcESaIcEEC1ESt13_Ios_Openmode@PLT	#
.LEHE87:
	.loc 9 994 0
	lea	rax, -416[rbp]	# tmp90,
	lea	rdx, 16[rax]	# tmp91,
	mov	rax, QWORD PTR -432[rbp]	# tmp92, value
	mov	rsi, rdx	#, tmp91
	mov	rdi, rax	#, tmp92
.LEHB88:
	call	_ZN7testing8internal21UniversalTersePrinterImE5PrintERKmPSo	#
	.loc 9 995 0
	mov	rax, QWORD PTR -424[rbp]	# tmp93, <retval>
	lea	rdx, -416[rbp]	# tmp94,
	mov	rsi, rdx	#, tmp94
	mov	rdi, rax	#, tmp93
	call	_ZNKSt7__cxx1118basic_stringstreamIcSt11char_traitsIcESaIcEE3strEv@PLT	#
.LEHE88:
	nop
	.loc 9 993 0
	lea	rax, -416[rbp]	# tmp95,
	mov	rdi, rax	#, tmp95
	call	_ZNSt7__cxx1118basic_stringstreamIcSt11char_traitsIcESaIcEED1Ev@PLT	#
	.loc 9 995 0
	jmp	.L254	#
.L253:
	mov	rbx, rax	# tmp97,
	.loc 9 993 0
	lea	rax, -416[rbp]	# tmp96,
	mov	rdi, rax	#, tmp96
	call	_ZNSt7__cxx1118basic_stringstreamIcSt11char_traitsIcESaIcEED1Ev@PLT	#
	mov	rax, rbx	# D.116013, tmp97
	mov	rdi, rax	#, D.116013
.LEHB89:
	call	_Unwind_Resume@PLT	#
.LEHE89:
.L254:
	.loc 9 996 0
	mov	rax, QWORD PTR -424[rbp]	#, <retval>
	add	rsp, 424	#,
	pop	rbx	#
	pop	rbp	#
	.cfi_def_cfa 7, 8
	ret
	.cfi_endproc
.LFE5146:
	.section	.gcc_except_table
.LLSDA5146:
	.byte	0xff
	.byte	0xff
	.byte	0x1
	.uleb128 .LLSDACSE5146-.LLSDACSB5146
.LLSDACSB5146:
	.uleb128 .LEHB87-.LFB5146
	.uleb128 .LEHE87-.LEHB87
	.uleb128 0
	.uleb128 0
	.uleb128 .LEHB88-.LFB5146
	.uleb128 .LEHE88-.LEHB88
	.uleb128 .L253-.LFB5146
	.uleb128 0
	.uleb128 .LEHB89-.LFB5146
	.uleb128 .LEHE89-.LEHB89
	.uleb128 0
	.uleb128 0
.LLSDACSE5146:
	.section	.text._ZN7testing13PrintToStringImEENSt7__cxx1112basic_stringIcSt11char_traitsIcESaIcEEERKT_,"axG",@progbits,_ZN7testing13PrintToStringImEENSt7__cxx1112basic_stringIcSt11char_traitsIcESaIcEEERKT_,comdat
	.size	_ZN7testing13PrintToStringImEENSt7__cxx1112basic_stringIcSt11char_traitsIcESaIcEEERKT_, .-_ZN7testing13PrintToStringImEENSt7__cxx1112basic_stringIcSt11char_traitsIcESaIcEEERKT_
	.section	.text._ZN7testing13PrintToStringIiEENSt7__cxx1112basic_stringIcSt11char_traitsIcESaIcEEERKT_,"axG",@progbits,_ZN7testing13PrintToStringIiEENSt7__cxx1112basic_stringIcSt11char_traitsIcESaIcEEERKT_,comdat
	.weak	_ZN7testing13PrintToStringIiEENSt7__cxx1112basic_stringIcSt11char_traitsIcESaIcEEERKT_
	.type	_ZN7testing13PrintToStringIiEENSt7__cxx1112basic_stringIcSt11char_traitsIcESaIcEEERKT_, @function
_ZN7testing13PrintToStringIiEENSt7__cxx1112basic_stringIcSt11char_traitsIcESaIcEEERKT_:
.LFB5147:
	.loc 9 992 0
	.cfi_startproc
	.cfi_personality 0x9b,DW.ref.__gxx_personality_v0
	.cfi_lsda 0x1b,.LLSDA5147
	push	rbp	#
	.cfi_def_cfa_offset 16
	.cfi_offset 6, -16
	mov	rbp, rsp	#,
	.cfi_def_cfa_register 6
	push	rbx	#
	sub	rsp, 424	#,
	.cfi_offset 3, -24
	mov	QWORD PTR -424[rbp], rdi	# .result_ptr, .result_ptr
	mov	QWORD PTR -432[rbp], rsi	# value, value
	.loc 9 993 0
	mov	esi, 8	#,
	mov	edi, 16	#,
	call	_ZStorSt13_Ios_OpenmodeS_	#
	mov	edx, eax	# _5,
	lea	rax, -416[rbp]	# tmp89,
	mov	esi, edx	#, _5
	mov	rdi, rax	#, tmp89
.LEHB90:
	call	_ZNSt7__cxx1118basic_stringstreamIcSt11char_traitsIcESaIcEEC1ESt13_Ios_Openmode@PLT	#
.LEHE90:
	.loc 9 994 0
	lea	rax, -416[rbp]	# tmp90,
	lea	rdx, 16[rax]	# tmp91,
	mov	rax, QWORD PTR -432[rbp]	# tmp92, value
	mov	rsi, rdx	#, tmp91
	mov	rdi, rax	#, tmp92
.LEHB91:
	call	_ZN7testing8internal21UniversalTersePrinterIiE5PrintERKiPSo	#
	.loc 9 995 0
	mov	rax, QWORD PTR -424[rbp]	# tmp93, <retval>
	lea	rdx, -416[rbp]	# tmp94,
	mov	rsi, rdx	#, tmp94
	mov	rdi, rax	#, tmp93
	call	_ZNKSt7__cxx1118basic_stringstreamIcSt11char_traitsIcESaIcEE3strEv@PLT	#
.LEHE91:
	nop
	.loc 9 993 0
	lea	rax, -416[rbp]	# tmp95,
	mov	rdi, rax	#, tmp95
	call	_ZNSt7__cxx1118basic_stringstreamIcSt11char_traitsIcESaIcEED1Ev@PLT	#
	.loc 9 995 0
	jmp	.L259	#
.L258:
	mov	rbx, rax	# tmp97,
	.loc 9 993 0
	lea	rax, -416[rbp]	# tmp96,
	mov	rdi, rax	#, tmp96
	call	_ZNSt7__cxx1118basic_stringstreamIcSt11char_traitsIcESaIcEED1Ev@PLT	#
	mov	rax, rbx	# D.116016, tmp97
	mov	rdi, rax	#, D.116016
.LEHB92:
	call	_Unwind_Resume@PLT	#
.LEHE92:
.L259:
	.loc 9 996 0
	mov	rax, QWORD PTR -424[rbp]	#, <retval>
	add	rsp, 424	#,
	pop	rbx	#
	pop	rbp	#
	.cfi_def_cfa 7, 8
	ret
	.cfi_endproc
.LFE5147:
	.section	.gcc_except_table
.LLSDA5147:
	.byte	0xff
	.byte	0xff
	.byte	0x1
	.uleb128 .LLSDACSE5147-.LLSDACSB5147
.LLSDACSB5147:
	.uleb128 .LEHB90-.LFB5147
	.uleb128 .LEHE90-.LEHB90
	.uleb128 0
	.uleb128 0
	.uleb128 .LEHB91-.LFB5147
	.uleb128 .LEHE91-.LEHB91
	.uleb128 .L258-.LFB5147
	.uleb128 0
	.uleb128 .LEHB92-.LFB5147
	.uleb128 .LEHE92-.LEHB92
	.uleb128 0
	.uleb128 0
.LLSDACSE5147:
	.section	.text._ZN7testing13PrintToStringIiEENSt7__cxx1112basic_stringIcSt11char_traitsIcESaIcEEERKT_,"axG",@progbits,_ZN7testing13PrintToStringIiEENSt7__cxx1112basic_stringIcSt11char_traitsIcESaIcEEERKT_,comdat
	.size	_ZN7testing13PrintToStringIiEENSt7__cxx1112basic_stringIcSt11char_traitsIcESaIcEEERKT_, .-_ZN7testing13PrintToStringIiEENSt7__cxx1112basic_stringIcSt11char_traitsIcESaIcEEERKT_
	.section	.text._ZN7testing8internal21UniversalTersePrinterImE5PrintERKmPSo,"axG",@progbits,_ZN7testing8internal21UniversalTersePrinterImE5PrintERKmPSo,comdat
	.weak	_ZN7testing8internal21UniversalTersePrinterImE5PrintERKmPSo
	.type	_ZN7testing8internal21UniversalTersePrinterImE5PrintERKmPSo, @function
_ZN7testing8internal21UniversalTersePrinterImE5PrintERKmPSo:
.LFB5172:
	.loc 9 795 0
	.cfi_startproc
	push	rbp	#
	.cfi_def_cfa_offset 16
	.cfi_offset 6, -16
	mov	rbp, rsp	#,
	.cfi_def_cfa_register 6
	sub	rsp, 16	#,
	mov	QWORD PTR -8[rbp], rdi	# value, value
	mov	QWORD PTR -16[rbp], rsi	# os, os
	.loc 9 796 0
	mov	rdx, QWORD PTR -16[rbp]	# tmp87, os
	mov	rax, QWORD PTR -8[rbp]	# tmp88, value
	mov	rsi, rdx	#, tmp87
	mov	rdi, rax	#, tmp88
	call	_ZN7testing8internal14UniversalPrintImEEvRKT_PSo	#
	.loc 9 797 0
	nop
	leave
	.cfi_def_cfa 7, 8
	ret
	.cfi_endproc
.LFE5172:
	.size	_ZN7testing8internal21UniversalTersePrinterImE5PrintERKmPSo, .-_ZN7testing8internal21UniversalTersePrinterImE5PrintERKmPSo
	.section	.text._ZN7testing8internal21UniversalTersePrinterIiE5PrintERKiPSo,"axG",@progbits,_ZN7testing8internal21UniversalTersePrinterIiE5PrintERKiPSo,comdat
	.weak	_ZN7testing8internal21UniversalTersePrinterIiE5PrintERKiPSo
	.type	_ZN7testing8internal21UniversalTersePrinterIiE5PrintERKiPSo, @function
_ZN7testing8internal21UniversalTersePrinterIiE5PrintERKiPSo:
.LFB5173:
	.loc 9 795 0
	.cfi_startproc
	push	rbp	#
	.cfi_def_cfa_offset 16
	.cfi_offset 6, -16
	mov	rbp, rsp	#,
	.cfi_def_cfa_register 6
	sub	rsp, 16	#,
	mov	QWORD PTR -8[rbp], rdi	# value, value
	mov	QWORD PTR -16[rbp], rsi	# os, os
	.loc 9 796 0
	mov	rdx, QWORD PTR -16[rbp]	# tmp87, os
	mov	rax, QWORD PTR -8[rbp]	# tmp88, value
	mov	rsi, rdx	#, tmp87
	mov	rdi, rax	#, tmp88
	call	_ZN7testing8internal14UniversalPrintIiEEvRKT_PSo	#
	.loc 9 797 0
	nop
	leave
	.cfi_def_cfa 7, 8
	ret
	.cfi_endproc
.LFE5173:
	.size	_ZN7testing8internal21UniversalTersePrinterIiE5PrintERKiPSo, .-_ZN7testing8internal21UniversalTersePrinterIiE5PrintERKiPSo
	.section	.text._ZN7testing8internal14UniversalPrintImEEvRKT_PSo,"axG",@progbits,_ZN7testing8internal14UniversalPrintImEEvRKT_PSo,comdat
	.weak	_ZN7testing8internal14UniversalPrintImEEvRKT_PSo
	.type	_ZN7testing8internal14UniversalPrintImEEvRKT_PSo, @function
_ZN7testing8internal14UniversalPrintImEEvRKT_PSo:
.LFB5196:
	.loc 9 864 0
	.cfi_startproc
	push	rbp	#
	.cfi_def_cfa_offset 16
	.cfi_offset 6, -16
	mov	rbp, rsp	#,
	.cfi_def_cfa_register 6
	sub	rsp, 16	#,
	mov	QWORD PTR -8[rbp], rdi	# value, value
	mov	QWORD PTR -16[rbp], rsi	# os, os
	.loc 9 868 0
	mov	rdx, QWORD PTR -16[rbp]	# tmp87, os
	mov	rax, QWORD PTR -8[rbp]	# tmp88, value
	mov	rsi, rdx	#, tmp87
	mov	rdi, rax	#, tmp88
	call	_ZN7testing8internal16UniversalPrinterImE5PrintERKmPSo	#
	.loc 9 869 0
	nop
	leave
	.cfi_def_cfa 7, 8
	ret
	.cfi_endproc
.LFE5196:
	.size	_ZN7testing8internal14UniversalPrintImEEvRKT_PSo, .-_ZN7testing8internal14UniversalPrintImEEvRKT_PSo
	.section	.text._ZN7testing8internal14UniversalPrintIiEEvRKT_PSo,"axG",@progbits,_ZN7testing8internal14UniversalPrintIiEEvRKT_PSo,comdat
	.weak	_ZN7testing8internal14UniversalPrintIiEEvRKT_PSo
	.type	_ZN7testing8internal14UniversalPrintIiEEvRKT_PSo, @function
_ZN7testing8internal14UniversalPrintIiEEvRKT_PSo:
.LFB5197:
	.loc 9 864 0
	.cfi_startproc
	push	rbp	#
	.cfi_def_cfa_offset 16
	.cfi_offset 6, -16
	mov	rbp, rsp	#,
	.cfi_def_cfa_register 6
	sub	rsp, 16	#,
	mov	QWORD PTR -8[rbp], rdi	# value, value
	mov	QWORD PTR -16[rbp], rsi	# os, os
	.loc 9 868 0
	mov	rdx, QWORD PTR -16[rbp]	# tmp87, os
	mov	rax, QWORD PTR -8[rbp]	# tmp88, value
	mov	rsi, rdx	#, tmp87
	mov	rdi, rax	#, tmp88
	call	_ZN7testing8internal16UniversalPrinterIiE5PrintERKiPSo	#
	.loc 9 869 0
	nop
	leave
	.cfi_def_cfa 7, 8
	ret
	.cfi_endproc
.LFE5197:
	.size	_ZN7testing8internal14UniversalPrintIiEEvRKT_PSo, .-_ZN7testing8internal14UniversalPrintIiEEvRKT_PSo
	.section	.text._ZN7testing8internal16UniversalPrinterImE5PrintERKmPSo,"axG",@progbits,_ZN7testing8internal16UniversalPrinterImE5PrintERKmPSo,comdat
	.weak	_ZN7testing8internal16UniversalPrinterImE5PrintERKmPSo
	.type	_ZN7testing8internal16UniversalPrinterImE5PrintERKmPSo, @function
_ZN7testing8internal16UniversalPrinterImE5PrintERKmPSo:
.LFB5209:
	.loc 9 710 0
	.cfi_startproc
	push	rbp	#
	.cfi_def_cfa_offset 16
	.cfi_offset 6, -16
	mov	rbp, rsp	#,
	.cfi_def_cfa_register 6
	sub	rsp, 16	#,
	mov	QWORD PTR -8[rbp], rdi	# value, value
	mov	QWORD PTR -16[rbp], rsi	# os, os
	.loc 9 719 0
	mov	rdx, QWORD PTR -16[rbp]	# tmp87, os
	mov	rax, QWORD PTR -8[rbp]	# tmp88, value
	mov	rsi, rdx	#, tmp87
	mov	rdi, rax	#, tmp88
	call	_ZN7testing8internal7PrintToImEEvRKT_PSo	#
	.loc 9 720 0
	nop
	leave
	.cfi_def_cfa 7, 8
	ret
	.cfi_endproc
.LFE5209:
	.size	_ZN7testing8internal16UniversalPrinterImE5PrintERKmPSo, .-_ZN7testing8internal16UniversalPrinterImE5PrintERKmPSo
	.section	.text._ZN7testing8internal16UniversalPrinterIiE5PrintERKiPSo,"axG",@progbits,_ZN7testing8internal16UniversalPrinterIiE5PrintERKiPSo,comdat
	.weak	_ZN7testing8internal16UniversalPrinterIiE5PrintERKiPSo
	.type	_ZN7testing8internal16UniversalPrinterIiE5PrintERKiPSo, @function
_ZN7testing8internal16UniversalPrinterIiE5PrintERKiPSo:
.LFB5210:
	.loc 9 710 0
	.cfi_startproc
	push	rbp	#
	.cfi_def_cfa_offset 16
	.cfi_offset 6, -16
	mov	rbp, rsp	#,
	.cfi_def_cfa_register 6
	sub	rsp, 16	#,
	mov	QWORD PTR -8[rbp], rdi	# value, value
	mov	QWORD PTR -16[rbp], rsi	# os, os
	.loc 9 719 0
	mov	rdx, QWORD PTR -16[rbp]	# tmp87, os
	mov	rax, QWORD PTR -8[rbp]	# tmp88, value
	mov	rsi, rdx	#, tmp87
	mov	rdi, rax	#, tmp88
	call	_ZN7testing8internal7PrintToIiEEvRKT_PSo	#
	.loc 9 720 0
	nop
	leave
	.cfi_def_cfa 7, 8
	ret
	.cfi_endproc
.LFE5210:
	.size	_ZN7testing8internal16UniversalPrinterIiE5PrintERKiPSo, .-_ZN7testing8internal16UniversalPrinterIiE5PrintERKiPSo
	.section	.text._ZN7testing8internal7PrintToImEEvRKT_PSo,"axG",@progbits,_ZN7testing8internal7PrintToImEEvRKT_PSo,comdat
	.weak	_ZN7testing8internal7PrintToImEEvRKT_PSo
	.type	_ZN7testing8internal7PrintToImEEvRKT_PSo, @function
_ZN7testing8internal7PrintToImEEvRKT_PSo:
.LFB5215:
	.loc 9 455 0
	.cfi_startproc
	push	rbp	#
	.cfi_def_cfa_offset 16
	.cfi_offset 6, -16
	mov	rbp, rsp	#,
	.cfi_def_cfa_register 6
	sub	rsp, 32	#,
	mov	QWORD PTR -24[rbp], rdi	# value, value
	mov	QWORD PTR -32[rbp], rsi	# os, os
	.loc 9 477 0
	mov	rdx, QWORD PTR -32[rbp]	# tmp88, os
	mov	rax, QWORD PTR -24[rbp]	# tmp89, value
	sub	rsp, 8	#,
	push	rcx	# D.115174
	mov	rsi, rdx	#, tmp88
	mov	rdi, rax	#, tmp89
	call	_ZN7testing8internal14DefaultPrintToImEEvNS0_15WrapPrinterTypeILNS0_18DefaultPrinterTypeE3EEERKT_PSo	#
	add	rsp, 16	#,
	.loc 9 490 0
	nop
	leave
	.cfi_def_cfa 7, 8
	ret
	.cfi_endproc
.LFE5215:
	.size	_ZN7testing8internal7PrintToImEEvRKT_PSo, .-_ZN7testing8internal7PrintToImEEvRKT_PSo
	.section	.text._ZN7testing8internal7PrintToIiEEvRKT_PSo,"axG",@progbits,_ZN7testing8internal7PrintToIiEEvRKT_PSo,comdat
	.weak	_ZN7testing8internal7PrintToIiEEvRKT_PSo
	.type	_ZN7testing8internal7PrintToIiEEvRKT_PSo, @function
_ZN7testing8internal7PrintToIiEEvRKT_PSo:
.LFB5216:
	.loc 9 455 0
	.cfi_startproc
	push	rbp	#
	.cfi_def_cfa_offset 16
	.cfi_offset 6, -16
	mov	rbp, rsp	#,
	.cfi_def_cfa_register 6
	sub	rsp, 32	#,
	mov	QWORD PTR -24[rbp], rdi	# value, value
	mov	QWORD PTR -32[rbp], rsi	# os, os
	.loc 9 477 0
	mov	rdx, QWORD PTR -32[rbp]	# tmp88, os
	mov	rax, QWORD PTR -24[rbp]	# tmp89, value
	sub	rsp, 8	#,
	push	rcx	# D.115160
	mov	rsi, rdx	#, tmp88
	mov	rdi, rax	#, tmp89
	call	_ZN7testing8internal14DefaultPrintToIiEEvNS0_15WrapPrinterTypeILNS0_18DefaultPrinterTypeE3EEERKT_PSo	#
	add	rsp, 16	#,
	.loc 9 490 0
	nop
	leave
	.cfi_def_cfa 7, 8
	ret
	.cfi_endproc
.LFE5216:
	.size	_ZN7testing8internal7PrintToIiEEvRKT_PSo, .-_ZN7testing8internal7PrintToIiEEvRKT_PSo
	.section	.text._ZN7testing8internal14DefaultPrintToImEEvNS0_15WrapPrinterTypeILNS0_18DefaultPrinterTypeE3EEERKT_PSo,"axG",@progbits,_ZN7testing8internal14DefaultPrintToImEEvNS0_15WrapPrinterTypeILNS0_18DefaultPrinterTypeE3EEERKT_PSo,comdat
	.weak	_ZN7testing8internal14DefaultPrintToImEEvNS0_15WrapPrinterTypeILNS0_18DefaultPrinterTypeE3EEERKT_PSo
	.type	_ZN7testing8internal14DefaultPrintToImEEvNS0_15WrapPrinterTypeILNS0_18DefaultPrinterTypeE3EEERKT_PSo, @function
_ZN7testing8internal14DefaultPrintToImEEvNS0_15WrapPrinterTypeILNS0_18DefaultPrinterTypeE3EEERKT_PSo:
.LFB5219:
	.loc 9 438 0
	.cfi_startproc
	push	rbp	#
	.cfi_def_cfa_offset 16
	.cfi_offset 6, -16
	mov	rbp, rsp	#,
	.cfi_def_cfa_register 6
	sub	rsp, 16	#,
	mov	QWORD PTR -8[rbp], rdi	# value, value
	mov	QWORD PTR -16[rbp], rsi	# os, os
	.loc 9 440 0
	mov	rdx, QWORD PTR -16[rbp]	# tmp87, os
	mov	rax, QWORD PTR -8[rbp]	# tmp88, value
	mov	rsi, rdx	#, tmp87
	mov	rdi, rax	#, tmp88
	call	_ZN16testing_internal26DefaultPrintNonContainerToImEEvRKT_PSo	#
	.loc 9 441 0
	nop
	leave
	.cfi_def_cfa 7, 8
	ret
	.cfi_endproc
.LFE5219:
	.size	_ZN7testing8internal14DefaultPrintToImEEvNS0_15WrapPrinterTypeILNS0_18DefaultPrinterTypeE3EEERKT_PSo, .-_ZN7testing8internal14DefaultPrintToImEEvNS0_15WrapPrinterTypeILNS0_18DefaultPrinterTypeE3EEERKT_PSo
	.section	.text._ZN7testing8internal14DefaultPrintToIiEEvNS0_15WrapPrinterTypeILNS0_18DefaultPrinterTypeE3EEERKT_PSo,"axG",@progbits,_ZN7testing8internal14DefaultPrintToIiEEvNS0_15WrapPrinterTypeILNS0_18DefaultPrinterTypeE3EEERKT_PSo,comdat
	.weak	_ZN7testing8internal14DefaultPrintToIiEEvNS0_15WrapPrinterTypeILNS0_18DefaultPrinterTypeE3EEERKT_PSo
	.type	_ZN7testing8internal14DefaultPrintToIiEEvNS0_15WrapPrinterTypeILNS0_18DefaultPrinterTypeE3EEERKT_PSo, @function
_ZN7testing8internal14DefaultPrintToIiEEvNS0_15WrapPrinterTypeILNS0_18DefaultPrinterTypeE3EEERKT_PSo:
.LFB5220:
	.loc 9 438 0
	.cfi_startproc
	push	rbp	#
	.cfi_def_cfa_offset 16
	.cfi_offset 6, -16
	mov	rbp, rsp	#,
	.cfi_def_cfa_register 6
	sub	rsp, 16	#,
	mov	QWORD PTR -8[rbp], rdi	# value, value
	mov	QWORD PTR -16[rbp], rsi	# os, os
	.loc 9 440 0
	mov	rdx, QWORD PTR -16[rbp]	# tmp87, os
	mov	rax, QWORD PTR -8[rbp]	# tmp88, value
	mov	rsi, rdx	#, tmp87
	mov	rdi, rax	#, tmp88
	call	_ZN16testing_internal26DefaultPrintNonContainerToIiEEvRKT_PSo	#
	.loc 9 441 0
	nop
	leave
	.cfi_def_cfa 7, 8
	ret
	.cfi_endproc
.LFE5220:
	.size	_ZN7testing8internal14DefaultPrintToIiEEvNS0_15WrapPrinterTypeILNS0_18DefaultPrinterTypeE3EEERKT_PSo, .-_ZN7testing8internal14DefaultPrintToIiEEvNS0_15WrapPrinterTypeILNS0_18DefaultPrinterTypeE3EEERKT_PSo
	.section	.text._ZN16testing_internal26DefaultPrintNonContainerToImEEvRKT_PSo,"axG",@progbits,_ZN16testing_internal26DefaultPrintNonContainerToImEEvRKT_PSo,comdat
	.weak	_ZN16testing_internal26DefaultPrintNonContainerToImEEvRKT_PSo
	.type	_ZN16testing_internal26DefaultPrintNonContainerToImEEvRKT_PSo, @function
_ZN16testing_internal26DefaultPrintNonContainerToImEEvRKT_PSo:
.LFB5222:
	.loc 9 223 0
	.cfi_startproc
	push	rbp	#
	.cfi_def_cfa_offset 16
	.cfi_offset 6, -16
	mov	rbp, rsp	#,
	.cfi_def_cfa_register 6
	sub	rsp, 16	#,
	mov	QWORD PTR -8[rbp], rdi	# value, value
	mov	QWORD PTR -16[rbp], rsi	# os, os
	.loc 9 250 0
	mov	rax, QWORD PTR -8[rbp]	# tmp88, value
	mov	rdx, QWORD PTR [rax]	# _3, *value_2(D)
	mov	rax, QWORD PTR -16[rbp]	# tmp89, os
	mov	rsi, rdx	#, _3
	mov	rdi, rax	#, tmp89
	call	_ZNSolsEm@PLT	#
	.loc 9 251 0
	nop
	leave
	.cfi_def_cfa 7, 8
	ret
	.cfi_endproc
.LFE5222:
	.size	_ZN16testing_internal26DefaultPrintNonContainerToImEEvRKT_PSo, .-_ZN16testing_internal26DefaultPrintNonContainerToImEEvRKT_PSo
	.section	.text._ZN16testing_internal26DefaultPrintNonContainerToIiEEvRKT_PSo,"axG",@progbits,_ZN16testing_internal26DefaultPrintNonContainerToIiEEvRKT_PSo,comdat
	.weak	_ZN16testing_internal26DefaultPrintNonContainerToIiEEvRKT_PSo
	.type	_ZN16testing_internal26DefaultPrintNonContainerToIiEEvRKT_PSo, @function
_ZN16testing_internal26DefaultPrintNonContainerToIiEEvRKT_PSo:
.LFB5223:
	.loc 9 223 0
	.cfi_startproc
	push	rbp	#
	.cfi_def_cfa_offset 16
	.cfi_offset 6, -16
	mov	rbp, rsp	#,
	.cfi_def_cfa_register 6
	sub	rsp, 16	#,
	mov	QWORD PTR -8[rbp], rdi	# value, value
	mov	QWORD PTR -16[rbp], rsi	# os, os
	.loc 9 250 0
	mov	rax, QWORD PTR -8[rbp]	# tmp88, value
	mov	edx, DWORD PTR [rax]	# _3, *value_2(D)
	mov	rax, QWORD PTR -16[rbp]	# tmp89, os
	mov	esi, edx	#, _3
	mov	rdi, rax	#, tmp89
	call	_ZNSolsEi@PLT	#
	.loc 9 251 0
	nop
	leave
	.cfi_def_cfa 7, 8
	ret
	.cfi_endproc
.LFE5223:
	.size	_ZN16testing_internal26DefaultPrintNonContainerToIiEEvRKT_PSo, .-_ZN16testing_internal26DefaultPrintNonContainerToIiEEvRKT_PSo
	.weak	_ZTV37BinarySearch_test_different_type_Test
	.section	.data.rel.ro._ZTV37BinarySearch_test_different_type_Test,"awG",@progbits,_ZTV37BinarySearch_test_different_type_Test,comdat
	.align 8
	.type	_ZTV37BinarySearch_test_different_type_Test, @object
	.size	_ZTV37BinarySearch_test_different_type_Test, 64
_ZTV37BinarySearch_test_different_type_Test:
	.quad	0
	.quad	_ZTI37BinarySearch_test_different_type_Test
	.quad	_ZN37BinarySearch_test_different_type_TestD1Ev
	.quad	_ZN37BinarySearch_test_different_type_TestD0Ev
	.quad	_ZN7testing4Test5SetUpEv
	.quad	_ZN7testing4Test8TearDownEv
	.quad	_ZN37BinarySearch_test_different_type_Test8TestBodyEv
	.quad	_ZN7testing4Test5SetupEv
	.section	.text._ZN37BinarySearch_test_different_type_TestD2Ev,"axG",@progbits,_ZN37BinarySearch_test_different_type_TestD5Ev,comdat
	.align 2
	.weak	_ZN37BinarySearch_test_different_type_TestD2Ev
	.type	_ZN37BinarySearch_test_different_type_TestD2Ev, @function
_ZN37BinarySearch_test_different_type_TestD2Ev:
.LFB5226:
	.loc 6 71 0
	.cfi_startproc
	push	rbp	#
	.cfi_def_cfa_offset 16
	.cfi_offset 6, -16
	mov	rbp, rsp	#,
	.cfi_def_cfa_register 6
	sub	rsp, 16	#,
	mov	QWORD PTR -8[rbp], rdi	# this, this
.LBB81:
	.loc 6 71 0
	lea	rdx, _ZTV37BinarySearch_test_different_type_Test[rip+16]	# _1,
	mov	rax, QWORD PTR -8[rbp]	# tmp89, this
	mov	QWORD PTR [rax], rdx	# this_3(D)->D.106217._vptr.Test, _1
	mov	rax, QWORD PTR -8[rbp]	# _5, this
	mov	rdi, rax	#, _5
	call	_ZN7testing4TestD2Ev@PLT	#
.LBE81:
	nop
	leave
	.cfi_def_cfa 7, 8
	ret
	.cfi_endproc
.LFE5226:
	.size	_ZN37BinarySearch_test_different_type_TestD2Ev, .-_ZN37BinarySearch_test_different_type_TestD2Ev
	.weak	_ZN37BinarySearch_test_different_type_TestD1Ev
	.set	_ZN37BinarySearch_test_different_type_TestD1Ev,_ZN37BinarySearch_test_different_type_TestD2Ev
	.section	.text._ZN37BinarySearch_test_different_type_TestD0Ev,"axG",@progbits,_ZN37BinarySearch_test_different_type_TestD5Ev,comdat
	.align 2
	.weak	_ZN37BinarySearch_test_different_type_TestD0Ev
	.type	_ZN37BinarySearch_test_different_type_TestD0Ev, @function
_ZN37BinarySearch_test_different_type_TestD0Ev:
.LFB5228:
	.loc 6 71 0
	.cfi_startproc
	push	rbp	#
	.cfi_def_cfa_offset 16
	.cfi_offset 6, -16
	mov	rbp, rsp	#,
	.cfi_def_cfa_register 6
	sub	rsp, 16	#,
	mov	QWORD PTR -8[rbp], rdi	# this, this
	.loc 6 71 0
	mov	rax, QWORD PTR -8[rbp]	# tmp87, this
	mov	rdi, rax	#, tmp87
	call	_ZN37BinarySearch_test_different_type_TestD1Ev	#
	mov	rax, QWORD PTR -8[rbp]	# tmp88, this
	mov	esi, 16	#,
	mov	rdi, rax	#, tmp88
	call	_ZdlPvm@PLT	#
	leave
	.cfi_def_cfa 7, 8
	ret
	.cfi_endproc
.LFE5228:
	.size	_ZN37BinarySearch_test_different_type_TestD0Ev, .-_ZN37BinarySearch_test_different_type_TestD0Ev
	.weak	_ZTVN7testing8internal15TestFactoryImplI37BinarySearch_test_different_type_TestEE
	.section	.data.rel.ro.local._ZTVN7testing8internal15TestFactoryImplI37BinarySearch_test_different_type_TestEE,"awG",@progbits,_ZTVN7testing8internal15TestFactoryImplI37BinarySearch_test_different_type_TestEE,comdat
	.align 8
	.type	_ZTVN7testing8internal15TestFactoryImplI37BinarySearch_test_different_type_TestEE, @object
	.size	_ZTVN7testing8internal15TestFactoryImplI37BinarySearch_test_different_type_TestEE, 40
_ZTVN7testing8internal15TestFactoryImplI37BinarySearch_test_different_type_TestEE:
	.quad	0
	.quad	_ZTIN7testing8internal15TestFactoryImplI37BinarySearch_test_different_type_TestEE
	.quad	_ZN7testing8internal15TestFactoryImplI37BinarySearch_test_different_type_TestED1Ev
	.quad	_ZN7testing8internal15TestFactoryImplI37BinarySearch_test_different_type_TestED0Ev
	.quad	_ZN7testing8internal15TestFactoryImplI37BinarySearch_test_different_type_TestE10CreateTestEv
	.section	.text._ZN7testing8internal15TestFactoryImplI37BinarySearch_test_different_type_TestED2Ev,"axG",@progbits,_ZN7testing8internal15TestFactoryImplI37BinarySearch_test_different_type_TestED5Ev,comdat
	.align 2
	.weak	_ZN7testing8internal15TestFactoryImplI37BinarySearch_test_different_type_TestED2Ev
	.type	_ZN7testing8internal15TestFactoryImplI37BinarySearch_test_different_type_TestED2Ev, @function
_ZN7testing8internal15TestFactoryImplI37BinarySearch_test_different_type_TestED2Ev:
.LFB5230:
	.loc 3 504 0
	.cfi_startproc
	push	rbp	#
	.cfi_def_cfa_offset 16
	.cfi_offset 6, -16
	mov	rbp, rsp	#,
	.cfi_def_cfa_register 6
	sub	rsp, 16	#,
	mov	QWORD PTR -8[rbp], rdi	# this, this
.LBB82:
	.loc 3 504 0
	lea	rdx, _ZTVN7testing8internal15TestFactoryImplI37BinarySearch_test_different_type_TestEE[rip+16]	# _1,
	mov	rax, QWORD PTR -8[rbp]	# tmp89, this
	mov	QWORD PTR [rax], rdx	# this_3(D)->D.106245._vptr.TestFactoryBase, _1
	mov	rax, QWORD PTR -8[rbp]	# _5, this
	mov	rdi, rax	#, _5
	call	_ZN7testing8internal15TestFactoryBaseD2Ev	#
.LBE82:
	nop
	leave
	.cfi_def_cfa 7, 8
	ret
	.cfi_endproc
.LFE5230:
	.size	_ZN7testing8internal15TestFactoryImplI37BinarySearch_test_different_type_TestED2Ev, .-_ZN7testing8internal15TestFactoryImplI37BinarySearch_test_different_type_TestED2Ev
	.weak	_ZN7testing8internal15TestFactoryImplI37BinarySearch_test_different_type_TestED1Ev
	.set	_ZN7testing8internal15TestFactoryImplI37BinarySearch_test_different_type_TestED1Ev,_ZN7testing8internal15TestFactoryImplI37BinarySearch_test_different_type_TestED2Ev
	.section	.text._ZN7testing8internal15TestFactoryImplI37BinarySearch_test_different_type_TestED0Ev,"axG",@progbits,_ZN7testing8internal15TestFactoryImplI37BinarySearch_test_different_type_TestED5Ev,comdat
	.align 2
	.weak	_ZN7testing8internal15TestFactoryImplI37BinarySearch_test_different_type_TestED0Ev
	.type	_ZN7testing8internal15TestFactoryImplI37BinarySearch_test_different_type_TestED0Ev, @function
_ZN7testing8internal15TestFactoryImplI37BinarySearch_test_different_type_TestED0Ev:
.LFB5232:
	.loc 3 504 0
	.cfi_startproc
	push	rbp	#
	.cfi_def_cfa_offset 16
	.cfi_offset 6, -16
	mov	rbp, rsp	#,
	.cfi_def_cfa_register 6
	sub	rsp, 16	#,
	mov	QWORD PTR -8[rbp], rdi	# this, this
	.loc 3 504 0
	mov	rax, QWORD PTR -8[rbp]	# tmp87, this
	mov	rdi, rax	#, tmp87
	call	_ZN7testing8internal15TestFactoryImplI37BinarySearch_test_different_type_TestED1Ev	#
	mov	rax, QWORD PTR -8[rbp]	# tmp88, this
	mov	esi, 8	#,
	mov	rdi, rax	#, tmp88
	call	_ZdlPvm@PLT	#
	leave
	.cfi_def_cfa 7, 8
	ret
	.cfi_endproc
.LFE5232:
	.size	_ZN7testing8internal15TestFactoryImplI37BinarySearch_test_different_type_TestED0Ev, .-_ZN7testing8internal15TestFactoryImplI37BinarySearch_test_different_type_TestED0Ev
	.weak	_ZTV32BinarySearch_test_not_exist_Test
	.section	.data.rel.ro._ZTV32BinarySearch_test_not_exist_Test,"awG",@progbits,_ZTV32BinarySearch_test_not_exist_Test,comdat
	.align 8
	.type	_ZTV32BinarySearch_test_not_exist_Test, @object
	.size	_ZTV32BinarySearch_test_not_exist_Test, 64
_ZTV32BinarySearch_test_not_exist_Test:
	.quad	0
	.quad	_ZTI32BinarySearch_test_not_exist_Test
	.quad	_ZN32BinarySearch_test_not_exist_TestD1Ev
	.quad	_ZN32BinarySearch_test_not_exist_TestD0Ev
	.quad	_ZN7testing4Test5SetUpEv
	.quad	_ZN7testing4Test8TearDownEv
	.quad	_ZN32BinarySearch_test_not_exist_Test8TestBodyEv
	.quad	_ZN7testing4Test5SetupEv
	.section	.text._ZN32BinarySearch_test_not_exist_TestD2Ev,"axG",@progbits,_ZN32BinarySearch_test_not_exist_TestD5Ev,comdat
	.align 2
	.weak	_ZN32BinarySearch_test_not_exist_TestD2Ev
	.type	_ZN32BinarySearch_test_not_exist_TestD2Ev, @function
_ZN32BinarySearch_test_not_exist_TestD2Ev:
.LFB5234:
	.loc 6 64 0
	.cfi_startproc
	push	rbp	#
	.cfi_def_cfa_offset 16
	.cfi_offset 6, -16
	mov	rbp, rsp	#,
	.cfi_def_cfa_register 6
	sub	rsp, 16	#,
	mov	QWORD PTR -8[rbp], rdi	# this, this
.LBB83:
	.loc 6 64 0
	lea	rdx, _ZTV32BinarySearch_test_not_exist_Test[rip+16]	# _1,
	mov	rax, QWORD PTR -8[rbp]	# tmp89, this
	mov	QWORD PTR [rax], rdx	# this_3(D)->D.106080._vptr.Test, _1
	mov	rax, QWORD PTR -8[rbp]	# _5, this
	mov	rdi, rax	#, _5
	call	_ZN7testing4TestD2Ev@PLT	#
.LBE83:
	nop
	leave
	.cfi_def_cfa 7, 8
	ret
	.cfi_endproc
.LFE5234:
	.size	_ZN32BinarySearch_test_not_exist_TestD2Ev, .-_ZN32BinarySearch_test_not_exist_TestD2Ev
	.weak	_ZN32BinarySearch_test_not_exist_TestD1Ev
	.set	_ZN32BinarySearch_test_not_exist_TestD1Ev,_ZN32BinarySearch_test_not_exist_TestD2Ev
	.section	.text._ZN32BinarySearch_test_not_exist_TestD0Ev,"axG",@progbits,_ZN32BinarySearch_test_not_exist_TestD5Ev,comdat
	.align 2
	.weak	_ZN32BinarySearch_test_not_exist_TestD0Ev
	.type	_ZN32BinarySearch_test_not_exist_TestD0Ev, @function
_ZN32BinarySearch_test_not_exist_TestD0Ev:
.LFB5236:
	.loc 6 64 0
	.cfi_startproc
	push	rbp	#
	.cfi_def_cfa_offset 16
	.cfi_offset 6, -16
	mov	rbp, rsp	#,
	.cfi_def_cfa_register 6
	sub	rsp, 16	#,
	mov	QWORD PTR -8[rbp], rdi	# this, this
	.loc 6 64 0
	mov	rax, QWORD PTR -8[rbp]	# tmp87, this
	mov	rdi, rax	#, tmp87
	call	_ZN32BinarySearch_test_not_exist_TestD1Ev	#
	mov	rax, QWORD PTR -8[rbp]	# tmp88, this
	mov	esi, 16	#,
	mov	rdi, rax	#, tmp88
	call	_ZdlPvm@PLT	#
	leave
	.cfi_def_cfa 7, 8
	ret
	.cfi_endproc
.LFE5236:
	.size	_ZN32BinarySearch_test_not_exist_TestD0Ev, .-_ZN32BinarySearch_test_not_exist_TestD0Ev
	.weak	_ZTVN7testing8internal15TestFactoryImplI32BinarySearch_test_not_exist_TestEE
	.section	.data.rel.ro.local._ZTVN7testing8internal15TestFactoryImplI32BinarySearch_test_not_exist_TestEE,"awG",@progbits,_ZTVN7testing8internal15TestFactoryImplI32BinarySearch_test_not_exist_TestEE,comdat
	.align 8
	.type	_ZTVN7testing8internal15TestFactoryImplI32BinarySearch_test_not_exist_TestEE, @object
	.size	_ZTVN7testing8internal15TestFactoryImplI32BinarySearch_test_not_exist_TestEE, 40
_ZTVN7testing8internal15TestFactoryImplI32BinarySearch_test_not_exist_TestEE:
	.quad	0
	.quad	_ZTIN7testing8internal15TestFactoryImplI32BinarySearch_test_not_exist_TestEE
	.quad	_ZN7testing8internal15TestFactoryImplI32BinarySearch_test_not_exist_TestED1Ev
	.quad	_ZN7testing8internal15TestFactoryImplI32BinarySearch_test_not_exist_TestED0Ev
	.quad	_ZN7testing8internal15TestFactoryImplI32BinarySearch_test_not_exist_TestE10CreateTestEv
	.section	.text._ZN7testing8internal15TestFactoryImplI32BinarySearch_test_not_exist_TestED2Ev,"axG",@progbits,_ZN7testing8internal15TestFactoryImplI32BinarySearch_test_not_exist_TestED5Ev,comdat
	.align 2
	.weak	_ZN7testing8internal15TestFactoryImplI32BinarySearch_test_not_exist_TestED2Ev
	.type	_ZN7testing8internal15TestFactoryImplI32BinarySearch_test_not_exist_TestED2Ev, @function
_ZN7testing8internal15TestFactoryImplI32BinarySearch_test_not_exist_TestED2Ev:
.LFB5238:
	.loc 3 504 0
	.cfi_startproc
	push	rbp	#
	.cfi_def_cfa_offset 16
	.cfi_offset 6, -16
	mov	rbp, rsp	#,
	.cfi_def_cfa_register 6
	sub	rsp, 16	#,
	mov	QWORD PTR -8[rbp], rdi	# this, this
.LBB84:
	.loc 3 504 0
	lea	rdx, _ZTVN7testing8internal15TestFactoryImplI32BinarySearch_test_not_exist_TestEE[rip+16]	# _1,
	mov	rax, QWORD PTR -8[rbp]	# tmp89, this
	mov	QWORD PTR [rax], rdx	# this_3(D)->D.106108._vptr.TestFactoryBase, _1
	mov	rax, QWORD PTR -8[rbp]	# _5, this
	mov	rdi, rax	#, _5
	call	_ZN7testing8internal15TestFactoryBaseD2Ev	#
.LBE84:
	nop
	leave
	.cfi_def_cfa 7, 8
	ret
	.cfi_endproc
.LFE5238:
	.size	_ZN7testing8internal15TestFactoryImplI32BinarySearch_test_not_exist_TestED2Ev, .-_ZN7testing8internal15TestFactoryImplI32BinarySearch_test_not_exist_TestED2Ev
	.weak	_ZN7testing8internal15TestFactoryImplI32BinarySearch_test_not_exist_TestED1Ev
	.set	_ZN7testing8internal15TestFactoryImplI32BinarySearch_test_not_exist_TestED1Ev,_ZN7testing8internal15TestFactoryImplI32BinarySearch_test_not_exist_TestED2Ev
	.section	.text._ZN7testing8internal15TestFactoryImplI32BinarySearch_test_not_exist_TestED0Ev,"axG",@progbits,_ZN7testing8internal15TestFactoryImplI32BinarySearch_test_not_exist_TestED5Ev,comdat
	.align 2
	.weak	_ZN7testing8internal15TestFactoryImplI32BinarySearch_test_not_exist_TestED0Ev
	.type	_ZN7testing8internal15TestFactoryImplI32BinarySearch_test_not_exist_TestED0Ev, @function
_ZN7testing8internal15TestFactoryImplI32BinarySearch_test_not_exist_TestED0Ev:
.LFB5240:
	.loc 3 504 0
	.cfi_startproc
	push	rbp	#
	.cfi_def_cfa_offset 16
	.cfi_offset 6, -16
	mov	rbp, rsp	#,
	.cfi_def_cfa_register 6
	sub	rsp, 16	#,
	mov	QWORD PTR -8[rbp], rdi	# this, this
	.loc 3 504 0
	mov	rax, QWORD PTR -8[rbp]	# tmp87, this
	mov	rdi, rax	#, tmp87
	call	_ZN7testing8internal15TestFactoryImplI32BinarySearch_test_not_exist_TestED1Ev	#
	mov	rax, QWORD PTR -8[rbp]	# tmp88, this
	mov	esi, 8	#,
	mov	rdi, rax	#, tmp88
	call	_ZdlPvm@PLT	#
	leave
	.cfi_def_cfa 7, 8
	ret
	.cfi_endproc
.LFE5240:
	.size	_ZN7testing8internal15TestFactoryImplI32BinarySearch_test_not_exist_TestED0Ev, .-_ZN7testing8internal15TestFactoryImplI32BinarySearch_test_not_exist_TestED0Ev
	.weak	_ZTV33BinarySearch_test_mixed_even_Test
	.section	.data.rel.ro._ZTV33BinarySearch_test_mixed_even_Test,"awG",@progbits,_ZTV33BinarySearch_test_mixed_even_Test,comdat
	.align 8
	.type	_ZTV33BinarySearch_test_mixed_even_Test, @object
	.size	_ZTV33BinarySearch_test_mixed_even_Test, 64
_ZTV33BinarySearch_test_mixed_even_Test:
	.quad	0
	.quad	_ZTI33BinarySearch_test_mixed_even_Test
	.quad	_ZN33BinarySearch_test_mixed_even_TestD1Ev
	.quad	_ZN33BinarySearch_test_mixed_even_TestD0Ev
	.quad	_ZN7testing4Test5SetUpEv
	.quad	_ZN7testing4Test8TearDownEv
	.quad	_ZN33BinarySearch_test_mixed_even_Test8TestBodyEv
	.quad	_ZN7testing4Test5SetupEv
	.section	.text._ZN33BinarySearch_test_mixed_even_TestD2Ev,"axG",@progbits,_ZN33BinarySearch_test_mixed_even_TestD5Ev,comdat
	.align 2
	.weak	_ZN33BinarySearch_test_mixed_even_TestD2Ev
	.type	_ZN33BinarySearch_test_mixed_even_TestD2Ev, @function
_ZN33BinarySearch_test_mixed_even_TestD2Ev:
.LFB5242:
	.loc 6 54 0
	.cfi_startproc
	push	rbp	#
	.cfi_def_cfa_offset 16
	.cfi_offset 6, -16
	mov	rbp, rsp	#,
	.cfi_def_cfa_register 6
	sub	rsp, 16	#,
	mov	QWORD PTR -8[rbp], rdi	# this, this
.LBB85:
	.loc 6 54 0
	lea	rdx, _ZTV33BinarySearch_test_mixed_even_Test[rip+16]	# _1,
	mov	rax, QWORD PTR -8[rbp]	# tmp89, this
	mov	QWORD PTR [rax], rdx	# this_3(D)->D.105966._vptr.Test, _1
	mov	rax, QWORD PTR -8[rbp]	# _5, this
	mov	rdi, rax	#, _5
	call	_ZN7testing4TestD2Ev@PLT	#
.LBE85:
	nop
	leave
	.cfi_def_cfa 7, 8
	ret
	.cfi_endproc
.LFE5242:
	.size	_ZN33BinarySearch_test_mixed_even_TestD2Ev, .-_ZN33BinarySearch_test_mixed_even_TestD2Ev
	.weak	_ZN33BinarySearch_test_mixed_even_TestD1Ev
	.set	_ZN33BinarySearch_test_mixed_even_TestD1Ev,_ZN33BinarySearch_test_mixed_even_TestD2Ev
	.section	.text._ZN33BinarySearch_test_mixed_even_TestD0Ev,"axG",@progbits,_ZN33BinarySearch_test_mixed_even_TestD5Ev,comdat
	.align 2
	.weak	_ZN33BinarySearch_test_mixed_even_TestD0Ev
	.type	_ZN33BinarySearch_test_mixed_even_TestD0Ev, @function
_ZN33BinarySearch_test_mixed_even_TestD0Ev:
.LFB5244:
	.loc 6 54 0
	.cfi_startproc
	push	rbp	#
	.cfi_def_cfa_offset 16
	.cfi_offset 6, -16
	mov	rbp, rsp	#,
	.cfi_def_cfa_register 6
	sub	rsp, 16	#,
	mov	QWORD PTR -8[rbp], rdi	# this, this
	.loc 6 54 0
	mov	rax, QWORD PTR -8[rbp]	# tmp87, this
	mov	rdi, rax	#, tmp87
	call	_ZN33BinarySearch_test_mixed_even_TestD1Ev	#
	mov	rax, QWORD PTR -8[rbp]	# tmp88, this
	mov	esi, 16	#,
	mov	rdi, rax	#, tmp88
	call	_ZdlPvm@PLT	#
	leave
	.cfi_def_cfa 7, 8
	ret
	.cfi_endproc
.LFE5244:
	.size	_ZN33BinarySearch_test_mixed_even_TestD0Ev, .-_ZN33BinarySearch_test_mixed_even_TestD0Ev
	.weak	_ZTVN7testing8internal15TestFactoryImplI33BinarySearch_test_mixed_even_TestEE
	.section	.data.rel.ro.local._ZTVN7testing8internal15TestFactoryImplI33BinarySearch_test_mixed_even_TestEE,"awG",@progbits,_ZTVN7testing8internal15TestFactoryImplI33BinarySearch_test_mixed_even_TestEE,comdat
	.align 8
	.type	_ZTVN7testing8internal15TestFactoryImplI33BinarySearch_test_mixed_even_TestEE, @object
	.size	_ZTVN7testing8internal15TestFactoryImplI33BinarySearch_test_mixed_even_TestEE, 40
_ZTVN7testing8internal15TestFactoryImplI33BinarySearch_test_mixed_even_TestEE:
	.quad	0
	.quad	_ZTIN7testing8internal15TestFactoryImplI33BinarySearch_test_mixed_even_TestEE
	.quad	_ZN7testing8internal15TestFactoryImplI33BinarySearch_test_mixed_even_TestED1Ev
	.quad	_ZN7testing8internal15TestFactoryImplI33BinarySearch_test_mixed_even_TestED0Ev
	.quad	_ZN7testing8internal15TestFactoryImplI33BinarySearch_test_mixed_even_TestE10CreateTestEv
	.section	.text._ZN7testing8internal15TestFactoryImplI33BinarySearch_test_mixed_even_TestED2Ev,"axG",@progbits,_ZN7testing8internal15TestFactoryImplI33BinarySearch_test_mixed_even_TestED5Ev,comdat
	.align 2
	.weak	_ZN7testing8internal15TestFactoryImplI33BinarySearch_test_mixed_even_TestED2Ev
	.type	_ZN7testing8internal15TestFactoryImplI33BinarySearch_test_mixed_even_TestED2Ev, @function
_ZN7testing8internal15TestFactoryImplI33BinarySearch_test_mixed_even_TestED2Ev:
.LFB5246:
	.loc 3 504 0
	.cfi_startproc
	push	rbp	#
	.cfi_def_cfa_offset 16
	.cfi_offset 6, -16
	mov	rbp, rsp	#,
	.cfi_def_cfa_register 6
	sub	rsp, 16	#,
	mov	QWORD PTR -8[rbp], rdi	# this, this
.LBB86:
	.loc 3 504 0
	lea	rdx, _ZTVN7testing8internal15TestFactoryImplI33BinarySearch_test_mixed_even_TestEE[rip+16]	# _1,
	mov	rax, QWORD PTR -8[rbp]	# tmp89, this
	mov	QWORD PTR [rax], rdx	# this_3(D)->D.105994._vptr.TestFactoryBase, _1
	mov	rax, QWORD PTR -8[rbp]	# _5, this
	mov	rdi, rax	#, _5
	call	_ZN7testing8internal15TestFactoryBaseD2Ev	#
.LBE86:
	nop
	leave
	.cfi_def_cfa 7, 8
	ret
	.cfi_endproc
.LFE5246:
	.size	_ZN7testing8internal15TestFactoryImplI33BinarySearch_test_mixed_even_TestED2Ev, .-_ZN7testing8internal15TestFactoryImplI33BinarySearch_test_mixed_even_TestED2Ev
	.weak	_ZN7testing8internal15TestFactoryImplI33BinarySearch_test_mixed_even_TestED1Ev
	.set	_ZN7testing8internal15TestFactoryImplI33BinarySearch_test_mixed_even_TestED1Ev,_ZN7testing8internal15TestFactoryImplI33BinarySearch_test_mixed_even_TestED2Ev
	.section	.text._ZN7testing8internal15TestFactoryImplI33BinarySearch_test_mixed_even_TestED0Ev,"axG",@progbits,_ZN7testing8internal15TestFactoryImplI33BinarySearch_test_mixed_even_TestED5Ev,comdat
	.align 2
	.weak	_ZN7testing8internal15TestFactoryImplI33BinarySearch_test_mixed_even_TestED0Ev
	.type	_ZN7testing8internal15TestFactoryImplI33BinarySearch_test_mixed_even_TestED0Ev, @function
_ZN7testing8internal15TestFactoryImplI33BinarySearch_test_mixed_even_TestED0Ev:
.LFB5248:
	.loc 3 504 0
	.cfi_startproc
	push	rbp	#
	.cfi_def_cfa_offset 16
	.cfi_offset 6, -16
	mov	rbp, rsp	#,
	.cfi_def_cfa_register 6
	sub	rsp, 16	#,
	mov	QWORD PTR -8[rbp], rdi	# this, this
	.loc 3 504 0
	mov	rax, QWORD PTR -8[rbp]	# tmp87, this
	mov	rdi, rax	#, tmp87
	call	_ZN7testing8internal15TestFactoryImplI33BinarySearch_test_mixed_even_TestED1Ev	#
	mov	rax, QWORD PTR -8[rbp]	# tmp88, this
	mov	esi, 8	#,
	mov	rdi, rax	#, tmp88
	call	_ZdlPvm@PLT	#
	leave
	.cfi_def_cfa 7, 8
	ret
	.cfi_endproc
.LFE5248:
	.size	_ZN7testing8internal15TestFactoryImplI33BinarySearch_test_mixed_even_TestED0Ev, .-_ZN7testing8internal15TestFactoryImplI33BinarySearch_test_mixed_even_TestED0Ev
	.weak	_ZTV32BinarySearch_test_mixed_odd_Test
	.section	.data.rel.ro._ZTV32BinarySearch_test_mixed_odd_Test,"awG",@progbits,_ZTV32BinarySearch_test_mixed_odd_Test,comdat
	.align 8
	.type	_ZTV32BinarySearch_test_mixed_odd_Test, @object
	.size	_ZTV32BinarySearch_test_mixed_odd_Test, 64
_ZTV32BinarySearch_test_mixed_odd_Test:
	.quad	0
	.quad	_ZTI32BinarySearch_test_mixed_odd_Test
	.quad	_ZN32BinarySearch_test_mixed_odd_TestD1Ev
	.quad	_ZN32BinarySearch_test_mixed_odd_TestD0Ev
	.quad	_ZN7testing4Test5SetUpEv
	.quad	_ZN7testing4Test8TearDownEv
	.quad	_ZN32BinarySearch_test_mixed_odd_Test8TestBodyEv
	.quad	_ZN7testing4Test5SetupEv
	.section	.text._ZN32BinarySearch_test_mixed_odd_TestD2Ev,"axG",@progbits,_ZN32BinarySearch_test_mixed_odd_TestD5Ev,comdat
	.align 2
	.weak	_ZN32BinarySearch_test_mixed_odd_TestD2Ev
	.type	_ZN32BinarySearch_test_mixed_odd_TestD2Ev, @function
_ZN32BinarySearch_test_mixed_odd_TestD2Ev:
.LFB5250:
	.loc 6 44 0
	.cfi_startproc
	push	rbp	#
	.cfi_def_cfa_offset 16
	.cfi_offset 6, -16
	mov	rbp, rsp	#,
	.cfi_def_cfa_register 6
	sub	rsp, 16	#,
	mov	QWORD PTR -8[rbp], rdi	# this, this
.LBB87:
	.loc 6 44 0
	lea	rdx, _ZTV32BinarySearch_test_mixed_odd_Test[rip+16]	# _1,
	mov	rax, QWORD PTR -8[rbp]	# tmp89, this
	mov	QWORD PTR [rax], rdx	# this_3(D)->D.105852._vptr.Test, _1
	mov	rax, QWORD PTR -8[rbp]	# _5, this
	mov	rdi, rax	#, _5
	call	_ZN7testing4TestD2Ev@PLT	#
.LBE87:
	nop
	leave
	.cfi_def_cfa 7, 8
	ret
	.cfi_endproc
.LFE5250:
	.size	_ZN32BinarySearch_test_mixed_odd_TestD2Ev, .-_ZN32BinarySearch_test_mixed_odd_TestD2Ev
	.weak	_ZN32BinarySearch_test_mixed_odd_TestD1Ev
	.set	_ZN32BinarySearch_test_mixed_odd_TestD1Ev,_ZN32BinarySearch_test_mixed_odd_TestD2Ev
	.section	.text._ZN32BinarySearch_test_mixed_odd_TestD0Ev,"axG",@progbits,_ZN32BinarySearch_test_mixed_odd_TestD5Ev,comdat
	.align 2
	.weak	_ZN32BinarySearch_test_mixed_odd_TestD0Ev
	.type	_ZN32BinarySearch_test_mixed_odd_TestD0Ev, @function
_ZN32BinarySearch_test_mixed_odd_TestD0Ev:
.LFB5252:
	.loc 6 44 0
	.cfi_startproc
	push	rbp	#
	.cfi_def_cfa_offset 16
	.cfi_offset 6, -16
	mov	rbp, rsp	#,
	.cfi_def_cfa_register 6
	sub	rsp, 16	#,
	mov	QWORD PTR -8[rbp], rdi	# this, this
	.loc 6 44 0
	mov	rax, QWORD PTR -8[rbp]	# tmp87, this
	mov	rdi, rax	#, tmp87
	call	_ZN32BinarySearch_test_mixed_odd_TestD1Ev	#
	mov	rax, QWORD PTR -8[rbp]	# tmp88, this
	mov	esi, 16	#,
	mov	rdi, rax	#, tmp88
	call	_ZdlPvm@PLT	#
	leave
	.cfi_def_cfa 7, 8
	ret
	.cfi_endproc
.LFE5252:
	.size	_ZN32BinarySearch_test_mixed_odd_TestD0Ev, .-_ZN32BinarySearch_test_mixed_odd_TestD0Ev
	.weak	_ZTVN7testing8internal15TestFactoryImplI32BinarySearch_test_mixed_odd_TestEE
	.section	.data.rel.ro.local._ZTVN7testing8internal15TestFactoryImplI32BinarySearch_test_mixed_odd_TestEE,"awG",@progbits,_ZTVN7testing8internal15TestFactoryImplI32BinarySearch_test_mixed_odd_TestEE,comdat
	.align 8
	.type	_ZTVN7testing8internal15TestFactoryImplI32BinarySearch_test_mixed_odd_TestEE, @object
	.size	_ZTVN7testing8internal15TestFactoryImplI32BinarySearch_test_mixed_odd_TestEE, 40
_ZTVN7testing8internal15TestFactoryImplI32BinarySearch_test_mixed_odd_TestEE:
	.quad	0
	.quad	_ZTIN7testing8internal15TestFactoryImplI32BinarySearch_test_mixed_odd_TestEE
	.quad	_ZN7testing8internal15TestFactoryImplI32BinarySearch_test_mixed_odd_TestED1Ev
	.quad	_ZN7testing8internal15TestFactoryImplI32BinarySearch_test_mixed_odd_TestED0Ev
	.quad	_ZN7testing8internal15TestFactoryImplI32BinarySearch_test_mixed_odd_TestE10CreateTestEv
	.section	.text._ZN7testing8internal15TestFactoryImplI32BinarySearch_test_mixed_odd_TestED2Ev,"axG",@progbits,_ZN7testing8internal15TestFactoryImplI32BinarySearch_test_mixed_odd_TestED5Ev,comdat
	.align 2
	.weak	_ZN7testing8internal15TestFactoryImplI32BinarySearch_test_mixed_odd_TestED2Ev
	.type	_ZN7testing8internal15TestFactoryImplI32BinarySearch_test_mixed_odd_TestED2Ev, @function
_ZN7testing8internal15TestFactoryImplI32BinarySearch_test_mixed_odd_TestED2Ev:
.LFB5254:
	.loc 3 504 0
	.cfi_startproc
	push	rbp	#
	.cfi_def_cfa_offset 16
	.cfi_offset 6, -16
	mov	rbp, rsp	#,
	.cfi_def_cfa_register 6
	sub	rsp, 16	#,
	mov	QWORD PTR -8[rbp], rdi	# this, this
.LBB88:
	.loc 3 504 0
	lea	rdx, _ZTVN7testing8internal15TestFactoryImplI32BinarySearch_test_mixed_odd_TestEE[rip+16]	# _1,
	mov	rax, QWORD PTR -8[rbp]	# tmp89, this
	mov	QWORD PTR [rax], rdx	# this_3(D)->D.105880._vptr.TestFactoryBase, _1
	mov	rax, QWORD PTR -8[rbp]	# _5, this
	mov	rdi, rax	#, _5
	call	_ZN7testing8internal15TestFactoryBaseD2Ev	#
.LBE88:
	nop
	leave
	.cfi_def_cfa 7, 8
	ret
	.cfi_endproc
.LFE5254:
	.size	_ZN7testing8internal15TestFactoryImplI32BinarySearch_test_mixed_odd_TestED2Ev, .-_ZN7testing8internal15TestFactoryImplI32BinarySearch_test_mixed_odd_TestED2Ev
	.weak	_ZN7testing8internal15TestFactoryImplI32BinarySearch_test_mixed_odd_TestED1Ev
	.set	_ZN7testing8internal15TestFactoryImplI32BinarySearch_test_mixed_odd_TestED1Ev,_ZN7testing8internal15TestFactoryImplI32BinarySearch_test_mixed_odd_TestED2Ev
	.section	.text._ZN7testing8internal15TestFactoryImplI32BinarySearch_test_mixed_odd_TestED0Ev,"axG",@progbits,_ZN7testing8internal15TestFactoryImplI32BinarySearch_test_mixed_odd_TestED5Ev,comdat
	.align 2
	.weak	_ZN7testing8internal15TestFactoryImplI32BinarySearch_test_mixed_odd_TestED0Ev
	.type	_ZN7testing8internal15TestFactoryImplI32BinarySearch_test_mixed_odd_TestED0Ev, @function
_ZN7testing8internal15TestFactoryImplI32BinarySearch_test_mixed_odd_TestED0Ev:
.LFB5256:
	.loc 3 504 0
	.cfi_startproc
	push	rbp	#
	.cfi_def_cfa_offset 16
	.cfi_offset 6, -16
	mov	rbp, rsp	#,
	.cfi_def_cfa_register 6
	sub	rsp, 16	#,
	mov	QWORD PTR -8[rbp], rdi	# this, this
	.loc 3 504 0
	mov	rax, QWORD PTR -8[rbp]	# tmp87, this
	mov	rdi, rax	#, tmp87
	call	_ZN7testing8internal15TestFactoryImplI32BinarySearch_test_mixed_odd_TestED1Ev	#
	mov	rax, QWORD PTR -8[rbp]	# tmp88, this
	mov	esi, 8	#,
	mov	rdi, rax	#, tmp88
	call	_ZdlPvm@PLT	#
	leave
	.cfi_def_cfa 7, 8
	ret
	.cfi_endproc
.LFE5256:
	.size	_ZN7testing8internal15TestFactoryImplI32BinarySearch_test_mixed_odd_TestED0Ev, .-_ZN7testing8internal15TestFactoryImplI32BinarySearch_test_mixed_odd_TestED0Ev
	.weak	_ZTV36BinarySearch_test_negatvies_odd_Test
	.section	.data.rel.ro._ZTV36BinarySearch_test_negatvies_odd_Test,"awG",@progbits,_ZTV36BinarySearch_test_negatvies_odd_Test,comdat
	.align 8
	.type	_ZTV36BinarySearch_test_negatvies_odd_Test, @object
	.size	_ZTV36BinarySearch_test_negatvies_odd_Test, 64
_ZTV36BinarySearch_test_negatvies_odd_Test:
	.quad	0
	.quad	_ZTI36BinarySearch_test_negatvies_odd_Test
	.quad	_ZN36BinarySearch_test_negatvies_odd_TestD1Ev
	.quad	_ZN36BinarySearch_test_negatvies_odd_TestD0Ev
	.quad	_ZN7testing4Test5SetUpEv
	.quad	_ZN7testing4Test8TearDownEv
	.quad	_ZN36BinarySearch_test_negatvies_odd_Test8TestBodyEv
	.quad	_ZN7testing4Test5SetupEv
	.section	.text._ZN36BinarySearch_test_negatvies_odd_TestD2Ev,"axG",@progbits,_ZN36BinarySearch_test_negatvies_odd_TestD5Ev,comdat
	.align 2
	.weak	_ZN36BinarySearch_test_negatvies_odd_TestD2Ev
	.type	_ZN36BinarySearch_test_negatvies_odd_TestD2Ev, @function
_ZN36BinarySearch_test_negatvies_odd_TestD2Ev:
.LFB5258:
	.loc 6 34 0
	.cfi_startproc
	push	rbp	#
	.cfi_def_cfa_offset 16
	.cfi_offset 6, -16
	mov	rbp, rsp	#,
	.cfi_def_cfa_register 6
	sub	rsp, 16	#,
	mov	QWORD PTR -8[rbp], rdi	# this, this
.LBB89:
	.loc 6 34 0
	lea	rdx, _ZTV36BinarySearch_test_negatvies_odd_Test[rip+16]	# _1,
	mov	rax, QWORD PTR -8[rbp]	# tmp89, this
	mov	QWORD PTR [rax], rdx	# this_3(D)->D.105738._vptr.Test, _1
	mov	rax, QWORD PTR -8[rbp]	# _5, this
	mov	rdi, rax	#, _5
	call	_ZN7testing4TestD2Ev@PLT	#
.LBE89:
	nop
	leave
	.cfi_def_cfa 7, 8
	ret
	.cfi_endproc
.LFE5258:
	.size	_ZN36BinarySearch_test_negatvies_odd_TestD2Ev, .-_ZN36BinarySearch_test_negatvies_odd_TestD2Ev
	.weak	_ZN36BinarySearch_test_negatvies_odd_TestD1Ev
	.set	_ZN36BinarySearch_test_negatvies_odd_TestD1Ev,_ZN36BinarySearch_test_negatvies_odd_TestD2Ev
	.section	.text._ZN36BinarySearch_test_negatvies_odd_TestD0Ev,"axG",@progbits,_ZN36BinarySearch_test_negatvies_odd_TestD5Ev,comdat
	.align 2
	.weak	_ZN36BinarySearch_test_negatvies_odd_TestD0Ev
	.type	_ZN36BinarySearch_test_negatvies_odd_TestD0Ev, @function
_ZN36BinarySearch_test_negatvies_odd_TestD0Ev:
.LFB5260:
	.loc 6 34 0
	.cfi_startproc
	push	rbp	#
	.cfi_def_cfa_offset 16
	.cfi_offset 6, -16
	mov	rbp, rsp	#,
	.cfi_def_cfa_register 6
	sub	rsp, 16	#,
	mov	QWORD PTR -8[rbp], rdi	# this, this
	.loc 6 34 0
	mov	rax, QWORD PTR -8[rbp]	# tmp87, this
	mov	rdi, rax	#, tmp87
	call	_ZN36BinarySearch_test_negatvies_odd_TestD1Ev	#
	mov	rax, QWORD PTR -8[rbp]	# tmp88, this
	mov	esi, 16	#,
	mov	rdi, rax	#, tmp88
	call	_ZdlPvm@PLT	#
	leave
	.cfi_def_cfa 7, 8
	ret
	.cfi_endproc
.LFE5260:
	.size	_ZN36BinarySearch_test_negatvies_odd_TestD0Ev, .-_ZN36BinarySearch_test_negatvies_odd_TestD0Ev
	.weak	_ZTVN7testing8internal15TestFactoryImplI36BinarySearch_test_negatvies_odd_TestEE
	.section	.data.rel.ro.local._ZTVN7testing8internal15TestFactoryImplI36BinarySearch_test_negatvies_odd_TestEE,"awG",@progbits,_ZTVN7testing8internal15TestFactoryImplI36BinarySearch_test_negatvies_odd_TestEE,comdat
	.align 8
	.type	_ZTVN7testing8internal15TestFactoryImplI36BinarySearch_test_negatvies_odd_TestEE, @object
	.size	_ZTVN7testing8internal15TestFactoryImplI36BinarySearch_test_negatvies_odd_TestEE, 40
_ZTVN7testing8internal15TestFactoryImplI36BinarySearch_test_negatvies_odd_TestEE:
	.quad	0
	.quad	_ZTIN7testing8internal15TestFactoryImplI36BinarySearch_test_negatvies_odd_TestEE
	.quad	_ZN7testing8internal15TestFactoryImplI36BinarySearch_test_negatvies_odd_TestED1Ev
	.quad	_ZN7testing8internal15TestFactoryImplI36BinarySearch_test_negatvies_odd_TestED0Ev
	.quad	_ZN7testing8internal15TestFactoryImplI36BinarySearch_test_negatvies_odd_TestE10CreateTestEv
	.section	.text._ZN7testing8internal15TestFactoryImplI36BinarySearch_test_negatvies_odd_TestED2Ev,"axG",@progbits,_ZN7testing8internal15TestFactoryImplI36BinarySearch_test_negatvies_odd_TestED5Ev,comdat
	.align 2
	.weak	_ZN7testing8internal15TestFactoryImplI36BinarySearch_test_negatvies_odd_TestED2Ev
	.type	_ZN7testing8internal15TestFactoryImplI36BinarySearch_test_negatvies_odd_TestED2Ev, @function
_ZN7testing8internal15TestFactoryImplI36BinarySearch_test_negatvies_odd_TestED2Ev:
.LFB5262:
	.loc 3 504 0
	.cfi_startproc
	push	rbp	#
	.cfi_def_cfa_offset 16
	.cfi_offset 6, -16
	mov	rbp, rsp	#,
	.cfi_def_cfa_register 6
	sub	rsp, 16	#,
	mov	QWORD PTR -8[rbp], rdi	# this, this
.LBB90:
	.loc 3 504 0
	lea	rdx, _ZTVN7testing8internal15TestFactoryImplI36BinarySearch_test_negatvies_odd_TestEE[rip+16]	# _1,
	mov	rax, QWORD PTR -8[rbp]	# tmp89, this
	mov	QWORD PTR [rax], rdx	# this_3(D)->D.105766._vptr.TestFactoryBase, _1
	mov	rax, QWORD PTR -8[rbp]	# _5, this
	mov	rdi, rax	#, _5
	call	_ZN7testing8internal15TestFactoryBaseD2Ev	#
.LBE90:
	nop
	leave
	.cfi_def_cfa 7, 8
	ret
	.cfi_endproc
.LFE5262:
	.size	_ZN7testing8internal15TestFactoryImplI36BinarySearch_test_negatvies_odd_TestED2Ev, .-_ZN7testing8internal15TestFactoryImplI36BinarySearch_test_negatvies_odd_TestED2Ev
	.weak	_ZN7testing8internal15TestFactoryImplI36BinarySearch_test_negatvies_odd_TestED1Ev
	.set	_ZN7testing8internal15TestFactoryImplI36BinarySearch_test_negatvies_odd_TestED1Ev,_ZN7testing8internal15TestFactoryImplI36BinarySearch_test_negatvies_odd_TestED2Ev
	.section	.text._ZN7testing8internal15TestFactoryImplI36BinarySearch_test_negatvies_odd_TestED0Ev,"axG",@progbits,_ZN7testing8internal15TestFactoryImplI36BinarySearch_test_negatvies_odd_TestED5Ev,comdat
	.align 2
	.weak	_ZN7testing8internal15TestFactoryImplI36BinarySearch_test_negatvies_odd_TestED0Ev
	.type	_ZN7testing8internal15TestFactoryImplI36BinarySearch_test_negatvies_odd_TestED0Ev, @function
_ZN7testing8internal15TestFactoryImplI36BinarySearch_test_negatvies_odd_TestED0Ev:
.LFB5264:
	.loc 3 504 0
	.cfi_startproc
	push	rbp	#
	.cfi_def_cfa_offset 16
	.cfi_offset 6, -16
	mov	rbp, rsp	#,
	.cfi_def_cfa_register 6
	sub	rsp, 16	#,
	mov	QWORD PTR -8[rbp], rdi	# this, this
	.loc 3 504 0
	mov	rax, QWORD PTR -8[rbp]	# tmp87, this
	mov	rdi, rax	#, tmp87
	call	_ZN7testing8internal15TestFactoryImplI36BinarySearch_test_negatvies_odd_TestED1Ev	#
	mov	rax, QWORD PTR -8[rbp]	# tmp88, this
	mov	esi, 8	#,
	mov	rdi, rax	#, tmp88
	call	_ZdlPvm@PLT	#
	leave
	.cfi_def_cfa 7, 8
	ret
	.cfi_endproc
.LFE5264:
	.size	_ZN7testing8internal15TestFactoryImplI36BinarySearch_test_negatvies_odd_TestED0Ev, .-_ZN7testing8internal15TestFactoryImplI36BinarySearch_test_negatvies_odd_TestED0Ev
	.weak	_ZTV37BinarySearch_test_negatvies_even_Test
	.section	.data.rel.ro._ZTV37BinarySearch_test_negatvies_even_Test,"awG",@progbits,_ZTV37BinarySearch_test_negatvies_even_Test,comdat
	.align 8
	.type	_ZTV37BinarySearch_test_negatvies_even_Test, @object
	.size	_ZTV37BinarySearch_test_negatvies_even_Test, 64
_ZTV37BinarySearch_test_negatvies_even_Test:
	.quad	0
	.quad	_ZTI37BinarySearch_test_negatvies_even_Test
	.quad	_ZN37BinarySearch_test_negatvies_even_TestD1Ev
	.quad	_ZN37BinarySearch_test_negatvies_even_TestD0Ev
	.quad	_ZN7testing4Test5SetUpEv
	.quad	_ZN7testing4Test8TearDownEv
	.quad	_ZN37BinarySearch_test_negatvies_even_Test8TestBodyEv
	.quad	_ZN7testing4Test5SetupEv
	.section	.text._ZN37BinarySearch_test_negatvies_even_TestD2Ev,"axG",@progbits,_ZN37BinarySearch_test_negatvies_even_TestD5Ev,comdat
	.align 2
	.weak	_ZN37BinarySearch_test_negatvies_even_TestD2Ev
	.type	_ZN37BinarySearch_test_negatvies_even_TestD2Ev, @function
_ZN37BinarySearch_test_negatvies_even_TestD2Ev:
.LFB5266:
	.loc 6 24 0
	.cfi_startproc
	push	rbp	#
	.cfi_def_cfa_offset 16
	.cfi_offset 6, -16
	mov	rbp, rsp	#,
	.cfi_def_cfa_register 6
	sub	rsp, 16	#,
	mov	QWORD PTR -8[rbp], rdi	# this, this
.LBB91:
	.loc 6 24 0
	lea	rdx, _ZTV37BinarySearch_test_negatvies_even_Test[rip+16]	# _1,
	mov	rax, QWORD PTR -8[rbp]	# tmp89, this
	mov	QWORD PTR [rax], rdx	# this_3(D)->D.105624._vptr.Test, _1
	mov	rax, QWORD PTR -8[rbp]	# _5, this
	mov	rdi, rax	#, _5
	call	_ZN7testing4TestD2Ev@PLT	#
.LBE91:
	nop
	leave
	.cfi_def_cfa 7, 8
	ret
	.cfi_endproc
.LFE5266:
	.size	_ZN37BinarySearch_test_negatvies_even_TestD2Ev, .-_ZN37BinarySearch_test_negatvies_even_TestD2Ev
	.weak	_ZN37BinarySearch_test_negatvies_even_TestD1Ev
	.set	_ZN37BinarySearch_test_negatvies_even_TestD1Ev,_ZN37BinarySearch_test_negatvies_even_TestD2Ev
	.section	.text._ZN37BinarySearch_test_negatvies_even_TestD0Ev,"axG",@progbits,_ZN37BinarySearch_test_negatvies_even_TestD5Ev,comdat
	.align 2
	.weak	_ZN37BinarySearch_test_negatvies_even_TestD0Ev
	.type	_ZN37BinarySearch_test_negatvies_even_TestD0Ev, @function
_ZN37BinarySearch_test_negatvies_even_TestD0Ev:
.LFB5268:
	.loc 6 24 0
	.cfi_startproc
	push	rbp	#
	.cfi_def_cfa_offset 16
	.cfi_offset 6, -16
	mov	rbp, rsp	#,
	.cfi_def_cfa_register 6
	sub	rsp, 16	#,
	mov	QWORD PTR -8[rbp], rdi	# this, this
	.loc 6 24 0
	mov	rax, QWORD PTR -8[rbp]	# tmp87, this
	mov	rdi, rax	#, tmp87
	call	_ZN37BinarySearch_test_negatvies_even_TestD1Ev	#
	mov	rax, QWORD PTR -8[rbp]	# tmp88, this
	mov	esi, 16	#,
	mov	rdi, rax	#, tmp88
	call	_ZdlPvm@PLT	#
	leave
	.cfi_def_cfa 7, 8
	ret
	.cfi_endproc
.LFE5268:
	.size	_ZN37BinarySearch_test_negatvies_even_TestD0Ev, .-_ZN37BinarySearch_test_negatvies_even_TestD0Ev
	.weak	_ZTVN7testing8internal15TestFactoryImplI37BinarySearch_test_negatvies_even_TestEE
	.section	.data.rel.ro.local._ZTVN7testing8internal15TestFactoryImplI37BinarySearch_test_negatvies_even_TestEE,"awG",@progbits,_ZTVN7testing8internal15TestFactoryImplI37BinarySearch_test_negatvies_even_TestEE,comdat
	.align 8
	.type	_ZTVN7testing8internal15TestFactoryImplI37BinarySearch_test_negatvies_even_TestEE, @object
	.size	_ZTVN7testing8internal15TestFactoryImplI37BinarySearch_test_negatvies_even_TestEE, 40
_ZTVN7testing8internal15TestFactoryImplI37BinarySearch_test_negatvies_even_TestEE:
	.quad	0
	.quad	_ZTIN7testing8internal15TestFactoryImplI37BinarySearch_test_negatvies_even_TestEE
	.quad	_ZN7testing8internal15TestFactoryImplI37BinarySearch_test_negatvies_even_TestED1Ev
	.quad	_ZN7testing8internal15TestFactoryImplI37BinarySearch_test_negatvies_even_TestED0Ev
	.quad	_ZN7testing8internal15TestFactoryImplI37BinarySearch_test_negatvies_even_TestE10CreateTestEv
	.section	.text._ZN7testing8internal15TestFactoryImplI37BinarySearch_test_negatvies_even_TestED2Ev,"axG",@progbits,_ZN7testing8internal15TestFactoryImplI37BinarySearch_test_negatvies_even_TestED5Ev,comdat
	.align 2
	.weak	_ZN7testing8internal15TestFactoryImplI37BinarySearch_test_negatvies_even_TestED2Ev
	.type	_ZN7testing8internal15TestFactoryImplI37BinarySearch_test_negatvies_even_TestED2Ev, @function
_ZN7testing8internal15TestFactoryImplI37BinarySearch_test_negatvies_even_TestED2Ev:
.LFB5270:
	.loc 3 504 0
	.cfi_startproc
	push	rbp	#
	.cfi_def_cfa_offset 16
	.cfi_offset 6, -16
	mov	rbp, rsp	#,
	.cfi_def_cfa_register 6
	sub	rsp, 16	#,
	mov	QWORD PTR -8[rbp], rdi	# this, this
.LBB92:
	.loc 3 504 0
	lea	rdx, _ZTVN7testing8internal15TestFactoryImplI37BinarySearch_test_negatvies_even_TestEE[rip+16]	# _1,
	mov	rax, QWORD PTR -8[rbp]	# tmp89, this
	mov	QWORD PTR [rax], rdx	# this_3(D)->D.105652._vptr.TestFactoryBase, _1
	mov	rax, QWORD PTR -8[rbp]	# _5, this
	mov	rdi, rax	#, _5
	call	_ZN7testing8internal15TestFactoryBaseD2Ev	#
.LBE92:
	nop
	leave
	.cfi_def_cfa 7, 8
	ret
	.cfi_endproc
.LFE5270:
	.size	_ZN7testing8internal15TestFactoryImplI37BinarySearch_test_negatvies_even_TestED2Ev, .-_ZN7testing8internal15TestFactoryImplI37BinarySearch_test_negatvies_even_TestED2Ev
	.weak	_ZN7testing8internal15TestFactoryImplI37BinarySearch_test_negatvies_even_TestED1Ev
	.set	_ZN7testing8internal15TestFactoryImplI37BinarySearch_test_negatvies_even_TestED1Ev,_ZN7testing8internal15TestFactoryImplI37BinarySearch_test_negatvies_even_TestED2Ev
	.section	.text._ZN7testing8internal15TestFactoryImplI37BinarySearch_test_negatvies_even_TestED0Ev,"axG",@progbits,_ZN7testing8internal15TestFactoryImplI37BinarySearch_test_negatvies_even_TestED5Ev,comdat
	.align 2
	.weak	_ZN7testing8internal15TestFactoryImplI37BinarySearch_test_negatvies_even_TestED0Ev
	.type	_ZN7testing8internal15TestFactoryImplI37BinarySearch_test_negatvies_even_TestED0Ev, @function
_ZN7testing8internal15TestFactoryImplI37BinarySearch_test_negatvies_even_TestED0Ev:
.LFB5272:
	.loc 3 504 0
	.cfi_startproc
	push	rbp	#
	.cfi_def_cfa_offset 16
	.cfi_offset 6, -16
	mov	rbp, rsp	#,
	.cfi_def_cfa_register 6
	sub	rsp, 16	#,
	mov	QWORD PTR -8[rbp], rdi	# this, this
	.loc 3 504 0
	mov	rax, QWORD PTR -8[rbp]	# tmp87, this
	mov	rdi, rax	#, tmp87
	call	_ZN7testing8internal15TestFactoryImplI37BinarySearch_test_negatvies_even_TestED1Ev	#
	mov	rax, QWORD PTR -8[rbp]	# tmp88, this
	mov	esi, 8	#,
	mov	rdi, rax	#, tmp88
	call	_ZdlPvm@PLT	#
	leave
	.cfi_def_cfa 7, 8
	ret
	.cfi_endproc
.LFE5272:
	.size	_ZN7testing8internal15TestFactoryImplI37BinarySearch_test_negatvies_even_TestED0Ev, .-_ZN7testing8internal15TestFactoryImplI37BinarySearch_test_negatvies_even_TestED0Ev
	.weak	_ZTV36BinarySearch_test_positives_odd_Test
	.section	.data.rel.ro._ZTV36BinarySearch_test_positives_odd_Test,"awG",@progbits,_ZTV36BinarySearch_test_positives_odd_Test,comdat
	.align 8
	.type	_ZTV36BinarySearch_test_positives_odd_Test, @object
	.size	_ZTV36BinarySearch_test_positives_odd_Test, 64
_ZTV36BinarySearch_test_positives_odd_Test:
	.quad	0
	.quad	_ZTI36BinarySearch_test_positives_odd_Test
	.quad	_ZN36BinarySearch_test_positives_odd_TestD1Ev
	.quad	_ZN36BinarySearch_test_positives_odd_TestD0Ev
	.quad	_ZN7testing4Test5SetUpEv
	.quad	_ZN7testing4Test8TearDownEv
	.quad	_ZN36BinarySearch_test_positives_odd_Test8TestBodyEv
	.quad	_ZN7testing4Test5SetupEv
	.section	.text._ZN36BinarySearch_test_positives_odd_TestD2Ev,"axG",@progbits,_ZN36BinarySearch_test_positives_odd_TestD5Ev,comdat
	.align 2
	.weak	_ZN36BinarySearch_test_positives_odd_TestD2Ev
	.type	_ZN36BinarySearch_test_positives_odd_TestD2Ev, @function
_ZN36BinarySearch_test_positives_odd_TestD2Ev:
.LFB5274:
	.loc 6 14 0
	.cfi_startproc
	push	rbp	#
	.cfi_def_cfa_offset 16
	.cfi_offset 6, -16
	mov	rbp, rsp	#,
	.cfi_def_cfa_register 6
	sub	rsp, 16	#,
	mov	QWORD PTR -8[rbp], rdi	# this, this
.LBB93:
	.loc 6 14 0
	lea	rdx, _ZTV36BinarySearch_test_positives_odd_Test[rip+16]	# _1,
	mov	rax, QWORD PTR -8[rbp]	# tmp89, this
	mov	QWORD PTR [rax], rdx	# this_3(D)->D.105510._vptr.Test, _1
	mov	rax, QWORD PTR -8[rbp]	# _5, this
	mov	rdi, rax	#, _5
	call	_ZN7testing4TestD2Ev@PLT	#
.LBE93:
	nop
	leave
	.cfi_def_cfa 7, 8
	ret
	.cfi_endproc
.LFE5274:
	.size	_ZN36BinarySearch_test_positives_odd_TestD2Ev, .-_ZN36BinarySearch_test_positives_odd_TestD2Ev
	.weak	_ZN36BinarySearch_test_positives_odd_TestD1Ev
	.set	_ZN36BinarySearch_test_positives_odd_TestD1Ev,_ZN36BinarySearch_test_positives_odd_TestD2Ev
	.section	.text._ZN36BinarySearch_test_positives_odd_TestD0Ev,"axG",@progbits,_ZN36BinarySearch_test_positives_odd_TestD5Ev,comdat
	.align 2
	.weak	_ZN36BinarySearch_test_positives_odd_TestD0Ev
	.type	_ZN36BinarySearch_test_positives_odd_TestD0Ev, @function
_ZN36BinarySearch_test_positives_odd_TestD0Ev:
.LFB5276:
	.loc 6 14 0
	.cfi_startproc
	push	rbp	#
	.cfi_def_cfa_offset 16
	.cfi_offset 6, -16
	mov	rbp, rsp	#,
	.cfi_def_cfa_register 6
	sub	rsp, 16	#,
	mov	QWORD PTR -8[rbp], rdi	# this, this
	.loc 6 14 0
	mov	rax, QWORD PTR -8[rbp]	# tmp87, this
	mov	rdi, rax	#, tmp87
	call	_ZN36BinarySearch_test_positives_odd_TestD1Ev	#
	mov	rax, QWORD PTR -8[rbp]	# tmp88, this
	mov	esi, 16	#,
	mov	rdi, rax	#, tmp88
	call	_ZdlPvm@PLT	#
	leave
	.cfi_def_cfa 7, 8
	ret
	.cfi_endproc
.LFE5276:
	.size	_ZN36BinarySearch_test_positives_odd_TestD0Ev, .-_ZN36BinarySearch_test_positives_odd_TestD0Ev
	.weak	_ZTVN7testing8internal15TestFactoryImplI36BinarySearch_test_positives_odd_TestEE
	.section	.data.rel.ro.local._ZTVN7testing8internal15TestFactoryImplI36BinarySearch_test_positives_odd_TestEE,"awG",@progbits,_ZTVN7testing8internal15TestFactoryImplI36BinarySearch_test_positives_odd_TestEE,comdat
	.align 8
	.type	_ZTVN7testing8internal15TestFactoryImplI36BinarySearch_test_positives_odd_TestEE, @object
	.size	_ZTVN7testing8internal15TestFactoryImplI36BinarySearch_test_positives_odd_TestEE, 40
_ZTVN7testing8internal15TestFactoryImplI36BinarySearch_test_positives_odd_TestEE:
	.quad	0
	.quad	_ZTIN7testing8internal15TestFactoryImplI36BinarySearch_test_positives_odd_TestEE
	.quad	_ZN7testing8internal15TestFactoryImplI36BinarySearch_test_positives_odd_TestED1Ev
	.quad	_ZN7testing8internal15TestFactoryImplI36BinarySearch_test_positives_odd_TestED0Ev
	.quad	_ZN7testing8internal15TestFactoryImplI36BinarySearch_test_positives_odd_TestE10CreateTestEv
	.section	.text._ZN7testing8internal15TestFactoryImplI36BinarySearch_test_positives_odd_TestED2Ev,"axG",@progbits,_ZN7testing8internal15TestFactoryImplI36BinarySearch_test_positives_odd_TestED5Ev,comdat
	.align 2
	.weak	_ZN7testing8internal15TestFactoryImplI36BinarySearch_test_positives_odd_TestED2Ev
	.type	_ZN7testing8internal15TestFactoryImplI36BinarySearch_test_positives_odd_TestED2Ev, @function
_ZN7testing8internal15TestFactoryImplI36BinarySearch_test_positives_odd_TestED2Ev:
.LFB5278:
	.loc 3 504 0
	.cfi_startproc
	push	rbp	#
	.cfi_def_cfa_offset 16
	.cfi_offset 6, -16
	mov	rbp, rsp	#,
	.cfi_def_cfa_register 6
	sub	rsp, 16	#,
	mov	QWORD PTR -8[rbp], rdi	# this, this
.LBB94:
	.loc 3 504 0
	lea	rdx, _ZTVN7testing8internal15TestFactoryImplI36BinarySearch_test_positives_odd_TestEE[rip+16]	# _1,
	mov	rax, QWORD PTR -8[rbp]	# tmp89, this
	mov	QWORD PTR [rax], rdx	# this_3(D)->D.105538._vptr.TestFactoryBase, _1
	mov	rax, QWORD PTR -8[rbp]	# _5, this
	mov	rdi, rax	#, _5
	call	_ZN7testing8internal15TestFactoryBaseD2Ev	#
.LBE94:
	nop
	leave
	.cfi_def_cfa 7, 8
	ret
	.cfi_endproc
.LFE5278:
	.size	_ZN7testing8internal15TestFactoryImplI36BinarySearch_test_positives_odd_TestED2Ev, .-_ZN7testing8internal15TestFactoryImplI36BinarySearch_test_positives_odd_TestED2Ev
	.weak	_ZN7testing8internal15TestFactoryImplI36BinarySearch_test_positives_odd_TestED1Ev
	.set	_ZN7testing8internal15TestFactoryImplI36BinarySearch_test_positives_odd_TestED1Ev,_ZN7testing8internal15TestFactoryImplI36BinarySearch_test_positives_odd_TestED2Ev
	.section	.text._ZN7testing8internal15TestFactoryImplI36BinarySearch_test_positives_odd_TestED0Ev,"axG",@progbits,_ZN7testing8internal15TestFactoryImplI36BinarySearch_test_positives_odd_TestED5Ev,comdat
	.align 2
	.weak	_ZN7testing8internal15TestFactoryImplI36BinarySearch_test_positives_odd_TestED0Ev
	.type	_ZN7testing8internal15TestFactoryImplI36BinarySearch_test_positives_odd_TestED0Ev, @function
_ZN7testing8internal15TestFactoryImplI36BinarySearch_test_positives_odd_TestED0Ev:
.LFB5280:
	.loc 3 504 0
	.cfi_startproc
	push	rbp	#
	.cfi_def_cfa_offset 16
	.cfi_offset 6, -16
	mov	rbp, rsp	#,
	.cfi_def_cfa_register 6
	sub	rsp, 16	#,
	mov	QWORD PTR -8[rbp], rdi	# this, this
	.loc 3 504 0
	mov	rax, QWORD PTR -8[rbp]	# tmp87, this
	mov	rdi, rax	#, tmp87
	call	_ZN7testing8internal15TestFactoryImplI36BinarySearch_test_positives_odd_TestED1Ev	#
	mov	rax, QWORD PTR -8[rbp]	# tmp88, this
	mov	esi, 8	#,
	mov	rdi, rax	#, tmp88
	call	_ZdlPvm@PLT	#
	leave
	.cfi_def_cfa 7, 8
	ret
	.cfi_endproc
.LFE5280:
	.size	_ZN7testing8internal15TestFactoryImplI36BinarySearch_test_positives_odd_TestED0Ev, .-_ZN7testing8internal15TestFactoryImplI36BinarySearch_test_positives_odd_TestED0Ev
	.weak	_ZTV37BinarySearch_test_positives_even_Test
	.section	.data.rel.ro._ZTV37BinarySearch_test_positives_even_Test,"awG",@progbits,_ZTV37BinarySearch_test_positives_even_Test,comdat
	.align 8
	.type	_ZTV37BinarySearch_test_positives_even_Test, @object
	.size	_ZTV37BinarySearch_test_positives_even_Test, 64
_ZTV37BinarySearch_test_positives_even_Test:
	.quad	0
	.quad	_ZTI37BinarySearch_test_positives_even_Test
	.quad	_ZN37BinarySearch_test_positives_even_TestD1Ev
	.quad	_ZN37BinarySearch_test_positives_even_TestD0Ev
	.quad	_ZN7testing4Test5SetUpEv
	.quad	_ZN7testing4Test8TearDownEv
	.quad	_ZN37BinarySearch_test_positives_even_Test8TestBodyEv
	.quad	_ZN7testing4Test5SetupEv
	.section	.text._ZN37BinarySearch_test_positives_even_TestD2Ev,"axG",@progbits,_ZN37BinarySearch_test_positives_even_TestD5Ev,comdat
	.align 2
	.weak	_ZN37BinarySearch_test_positives_even_TestD2Ev
	.type	_ZN37BinarySearch_test_positives_even_TestD2Ev, @function
_ZN37BinarySearch_test_positives_even_TestD2Ev:
.LFB5282:
	.loc 6 4 0
	.cfi_startproc
	push	rbp	#
	.cfi_def_cfa_offset 16
	.cfi_offset 6, -16
	mov	rbp, rsp	#,
	.cfi_def_cfa_register 6
	sub	rsp, 16	#,
	mov	QWORD PTR -8[rbp], rdi	# this, this
.LBB95:
	.loc 6 4 0
	lea	rdx, _ZTV37BinarySearch_test_positives_even_Test[rip+16]	# _1,
	mov	rax, QWORD PTR -8[rbp]	# tmp89, this
	mov	QWORD PTR [rax], rdx	# this_3(D)->D.105347._vptr.Test, _1
	mov	rax, QWORD PTR -8[rbp]	# _5, this
	mov	rdi, rax	#, _5
	call	_ZN7testing4TestD2Ev@PLT	#
.LBE95:
	nop
	leave
	.cfi_def_cfa 7, 8
	ret
	.cfi_endproc
.LFE5282:
	.size	_ZN37BinarySearch_test_positives_even_TestD2Ev, .-_ZN37BinarySearch_test_positives_even_TestD2Ev
	.weak	_ZN37BinarySearch_test_positives_even_TestD1Ev
	.set	_ZN37BinarySearch_test_positives_even_TestD1Ev,_ZN37BinarySearch_test_positives_even_TestD2Ev
	.section	.text._ZN37BinarySearch_test_positives_even_TestD0Ev,"axG",@progbits,_ZN37BinarySearch_test_positives_even_TestD5Ev,comdat
	.align 2
	.weak	_ZN37BinarySearch_test_positives_even_TestD0Ev
	.type	_ZN37BinarySearch_test_positives_even_TestD0Ev, @function
_ZN37BinarySearch_test_positives_even_TestD0Ev:
.LFB5284:
	.loc 6 4 0
	.cfi_startproc
	push	rbp	#
	.cfi_def_cfa_offset 16
	.cfi_offset 6, -16
	mov	rbp, rsp	#,
	.cfi_def_cfa_register 6
	sub	rsp, 16	#,
	mov	QWORD PTR -8[rbp], rdi	# this, this
	.loc 6 4 0
	mov	rax, QWORD PTR -8[rbp]	# tmp87, this
	mov	rdi, rax	#, tmp87
	call	_ZN37BinarySearch_test_positives_even_TestD1Ev	#
	mov	rax, QWORD PTR -8[rbp]	# tmp88, this
	mov	esi, 16	#,
	mov	rdi, rax	#, tmp88
	call	_ZdlPvm@PLT	#
	leave
	.cfi_def_cfa 7, 8
	ret
	.cfi_endproc
.LFE5284:
	.size	_ZN37BinarySearch_test_positives_even_TestD0Ev, .-_ZN37BinarySearch_test_positives_even_TestD0Ev
	.weak	_ZTVN7testing8internal15TestFactoryImplI37BinarySearch_test_positives_even_TestEE
	.section	.data.rel.ro.local._ZTVN7testing8internal15TestFactoryImplI37BinarySearch_test_positives_even_TestEE,"awG",@progbits,_ZTVN7testing8internal15TestFactoryImplI37BinarySearch_test_positives_even_TestEE,comdat
	.align 8
	.type	_ZTVN7testing8internal15TestFactoryImplI37BinarySearch_test_positives_even_TestEE, @object
	.size	_ZTVN7testing8internal15TestFactoryImplI37BinarySearch_test_positives_even_TestEE, 40
_ZTVN7testing8internal15TestFactoryImplI37BinarySearch_test_positives_even_TestEE:
	.quad	0
	.quad	_ZTIN7testing8internal15TestFactoryImplI37BinarySearch_test_positives_even_TestEE
	.quad	_ZN7testing8internal15TestFactoryImplI37BinarySearch_test_positives_even_TestED1Ev
	.quad	_ZN7testing8internal15TestFactoryImplI37BinarySearch_test_positives_even_TestED0Ev
	.quad	_ZN7testing8internal15TestFactoryImplI37BinarySearch_test_positives_even_TestE10CreateTestEv
	.section	.text._ZN7testing8internal15TestFactoryImplI37BinarySearch_test_positives_even_TestED2Ev,"axG",@progbits,_ZN7testing8internal15TestFactoryImplI37BinarySearch_test_positives_even_TestED5Ev,comdat
	.align 2
	.weak	_ZN7testing8internal15TestFactoryImplI37BinarySearch_test_positives_even_TestED2Ev
	.type	_ZN7testing8internal15TestFactoryImplI37BinarySearch_test_positives_even_TestED2Ev, @function
_ZN7testing8internal15TestFactoryImplI37BinarySearch_test_positives_even_TestED2Ev:
.LFB5286:
	.loc 3 504 0
	.cfi_startproc
	push	rbp	#
	.cfi_def_cfa_offset 16
	.cfi_offset 6, -16
	mov	rbp, rsp	#,
	.cfi_def_cfa_register 6
	sub	rsp, 16	#,
	mov	QWORD PTR -8[rbp], rdi	# this, this
.LBB96:
	.loc 3 504 0
	lea	rdx, _ZTVN7testing8internal15TestFactoryImplI37BinarySearch_test_positives_even_TestEE[rip+16]	# _1,
	mov	rax, QWORD PTR -8[rbp]	# tmp89, this
	mov	QWORD PTR [rax], rdx	# this_3(D)->D.105375._vptr.TestFactoryBase, _1
	mov	rax, QWORD PTR -8[rbp]	# _5, this
	mov	rdi, rax	#, _5
	call	_ZN7testing8internal15TestFactoryBaseD2Ev	#
.LBE96:
	nop
	leave
	.cfi_def_cfa 7, 8
	ret
	.cfi_endproc
.LFE5286:
	.size	_ZN7testing8internal15TestFactoryImplI37BinarySearch_test_positives_even_TestED2Ev, .-_ZN7testing8internal15TestFactoryImplI37BinarySearch_test_positives_even_TestED2Ev
	.weak	_ZN7testing8internal15TestFactoryImplI37BinarySearch_test_positives_even_TestED1Ev
	.set	_ZN7testing8internal15TestFactoryImplI37BinarySearch_test_positives_even_TestED1Ev,_ZN7testing8internal15TestFactoryImplI37BinarySearch_test_positives_even_TestED2Ev
	.section	.text._ZN7testing8internal15TestFactoryImplI37BinarySearch_test_positives_even_TestED0Ev,"axG",@progbits,_ZN7testing8internal15TestFactoryImplI37BinarySearch_test_positives_even_TestED5Ev,comdat
	.align 2
	.weak	_ZN7testing8internal15TestFactoryImplI37BinarySearch_test_positives_even_TestED0Ev
	.type	_ZN7testing8internal15TestFactoryImplI37BinarySearch_test_positives_even_TestED0Ev, @function
_ZN7testing8internal15TestFactoryImplI37BinarySearch_test_positives_even_TestED0Ev:
.LFB5288:
	.loc 3 504 0
	.cfi_startproc
	push	rbp	#
	.cfi_def_cfa_offset 16
	.cfi_offset 6, -16
	mov	rbp, rsp	#,
	.cfi_def_cfa_register 6
	sub	rsp, 16	#,
	mov	QWORD PTR -8[rbp], rdi	# this, this
	.loc 3 504 0
	mov	rax, QWORD PTR -8[rbp]	# tmp87, this
	mov	rdi, rax	#, tmp87
	call	_ZN7testing8internal15TestFactoryImplI37BinarySearch_test_positives_even_TestED1Ev	#
	mov	rax, QWORD PTR -8[rbp]	# tmp88, this
	mov	esi, 8	#,
	mov	rdi, rax	#, tmp88
	call	_ZdlPvm@PLT	#
	leave
	.cfi_def_cfa 7, 8
	ret
	.cfi_endproc
.LFE5288:
	.size	_ZN7testing8internal15TestFactoryImplI37BinarySearch_test_positives_even_TestED0Ev, .-_ZN7testing8internal15TestFactoryImplI37BinarySearch_test_positives_even_TestED0Ev
	.weak	_ZTVN7testing8internal15TestFactoryBaseE
	.section	.data.rel.ro._ZTVN7testing8internal15TestFactoryBaseE,"awG",@progbits,_ZTVN7testing8internal15TestFactoryBaseE,comdat
	.align 8
	.type	_ZTVN7testing8internal15TestFactoryBaseE, @object
	.size	_ZTVN7testing8internal15TestFactoryBaseE, 40
_ZTVN7testing8internal15TestFactoryBaseE:
	.quad	0
	.quad	_ZTIN7testing8internal15TestFactoryBaseE
	.quad	0
	.quad	0
	.quad	__cxa_pure_virtual
	.weak	_ZTV19SearchValueNotFound
	.section	.data.rel.ro.local._ZTV19SearchValueNotFound,"awG",@progbits,_ZTV19SearchValueNotFound,comdat
	.align 8
	.type	_ZTV19SearchValueNotFound, @object
	.size	_ZTV19SearchValueNotFound, 40
_ZTV19SearchValueNotFound:
	.quad	0
	.quad	_ZTI19SearchValueNotFound
	.quad	_ZN19SearchValueNotFoundD1Ev
	.quad	_ZN19SearchValueNotFoundD0Ev
	.quad	_ZNK19SearchValueNotFound4whatEv
	.section	.text._ZN19SearchValueNotFoundD2Ev,"axG",@progbits,_ZN19SearchValueNotFoundD5Ev,comdat
	.align 2
	.weak	_ZN19SearchValueNotFoundD2Ev
	.type	_ZN19SearchValueNotFoundD2Ev, @function
_ZN19SearchValueNotFoundD2Ev:
.LFB5290:
	.loc 1 6 0
	.cfi_startproc
	push	rbp	#
	.cfi_def_cfa_offset 16
	.cfi_offset 6, -16
	mov	rbp, rsp	#,
	.cfi_def_cfa_register 6
	sub	rsp, 16	#,
	mov	QWORD PTR -8[rbp], rdi	# this, this
.LBB97:
	.loc 1 6 0
	lea	rdx, _ZTV19SearchValueNotFound[rip+16]	# _1,
	mov	rax, QWORD PTR -8[rbp]	# tmp89, this
	mov	QWORD PTR [rax], rdx	# this_3(D)->D.23956.D.23804._vptr.exception, _1
	mov	rax, QWORD PTR -8[rbp]	# _5, this
	mov	rdi, rax	#, _5
	call	_ZNSt13runtime_errorD2Ev@PLT	#
.LBE97:
	nop
	leave
	.cfi_def_cfa 7, 8
	ret
	.cfi_endproc
.LFE5290:
	.size	_ZN19SearchValueNotFoundD2Ev, .-_ZN19SearchValueNotFoundD2Ev
	.weak	_ZN19SearchValueNotFoundD1Ev
	.set	_ZN19SearchValueNotFoundD1Ev,_ZN19SearchValueNotFoundD2Ev
	.section	.text._ZN19SearchValueNotFoundD0Ev,"axG",@progbits,_ZN19SearchValueNotFoundD5Ev,comdat
	.align 2
	.weak	_ZN19SearchValueNotFoundD0Ev
	.type	_ZN19SearchValueNotFoundD0Ev, @function
_ZN19SearchValueNotFoundD0Ev:
.LFB5292:
	.loc 1 6 0
	.cfi_startproc
	push	rbp	#
	.cfi_def_cfa_offset 16
	.cfi_offset 6, -16
	mov	rbp, rsp	#,
	.cfi_def_cfa_register 6
	sub	rsp, 16	#,
	mov	QWORD PTR -8[rbp], rdi	# this, this
	.loc 1 6 0
	mov	rax, QWORD PTR -8[rbp]	# tmp87, this
	mov	rdi, rax	#, tmp87
	call	_ZN19SearchValueNotFoundD1Ev	#
	mov	rax, QWORD PTR -8[rbp]	# tmp88, this
	mov	esi, 16	#,
	mov	rdi, rax	#, tmp88
	call	_ZdlPvm@PLT	#
	leave
	.cfi_def_cfa 7, 8
	ret
	.cfi_endproc
.LFE5292:
	.size	_ZN19SearchValueNotFoundD0Ev, .-_ZN19SearchValueNotFoundD0Ev
	.weak	_ZTIN7testing8internal15TestFactoryImplI37BinarySearch_test_different_type_TestEE
	.section	.data.rel.ro._ZTIN7testing8internal15TestFactoryImplI37BinarySearch_test_different_type_TestEE,"awG",@progbits,_ZTIN7testing8internal15TestFactoryImplI37BinarySearch_test_different_type_TestEE,comdat
	.align 8
	.type	_ZTIN7testing8internal15TestFactoryImplI37BinarySearch_test_different_type_TestEE, @object
	.size	_ZTIN7testing8internal15TestFactoryImplI37BinarySearch_test_different_type_TestEE, 24
_ZTIN7testing8internal15TestFactoryImplI37BinarySearch_test_different_type_TestEE:
# <anonymous>:
# <anonymous>:
	.quad	_ZTVN10__cxxabiv120__si_class_type_infoE+16
# <anonymous>:
	.quad	_ZTSN7testing8internal15TestFactoryImplI37BinarySearch_test_different_type_TestEE
# <anonymous>:
	.quad	_ZTIN7testing8internal15TestFactoryBaseE
	.weak	_ZTSN7testing8internal15TestFactoryImplI37BinarySearch_test_different_type_TestEE
	.section	.rodata._ZTSN7testing8internal15TestFactoryImplI37BinarySearch_test_different_type_TestEE,"aG",@progbits,_ZTSN7testing8internal15TestFactoryImplI37BinarySearch_test_different_type_TestEE,comdat
	.align 32
	.type	_ZTSN7testing8internal15TestFactoryImplI37BinarySearch_test_different_type_TestEE, @object
	.size	_ZTSN7testing8internal15TestFactoryImplI37BinarySearch_test_different_type_TestEE, 78
_ZTSN7testing8internal15TestFactoryImplI37BinarySearch_test_different_type_TestEE:
	.string	"N7testing8internal15TestFactoryImplI37BinarySearch_test_different_type_TestEE"
	.weak	_ZTI37BinarySearch_test_different_type_Test
	.section	.data.rel.ro._ZTI37BinarySearch_test_different_type_Test,"awG",@progbits,_ZTI37BinarySearch_test_different_type_Test,comdat
	.align 8
	.type	_ZTI37BinarySearch_test_different_type_Test, @object
	.size	_ZTI37BinarySearch_test_different_type_Test, 24
_ZTI37BinarySearch_test_different_type_Test:
# <anonymous>:
# <anonymous>:
	.quad	_ZTVN10__cxxabiv120__si_class_type_infoE+16
# <anonymous>:
	.quad	_ZTS37BinarySearch_test_different_type_Test
# <anonymous>:
	.quad	_ZTIN7testing4TestE
	.weak	_ZTS37BinarySearch_test_different_type_Test
	.section	.rodata._ZTS37BinarySearch_test_different_type_Test,"aG",@progbits,_ZTS37BinarySearch_test_different_type_Test,comdat
	.align 32
	.type	_ZTS37BinarySearch_test_different_type_Test, @object
	.size	_ZTS37BinarySearch_test_different_type_Test, 40
_ZTS37BinarySearch_test_different_type_Test:
	.string	"37BinarySearch_test_different_type_Test"
	.weak	_ZTIN7testing8internal15TestFactoryImplI32BinarySearch_test_not_exist_TestEE
	.section	.data.rel.ro._ZTIN7testing8internal15TestFactoryImplI32BinarySearch_test_not_exist_TestEE,"awG",@progbits,_ZTIN7testing8internal15TestFactoryImplI32BinarySearch_test_not_exist_TestEE,comdat
	.align 8
	.type	_ZTIN7testing8internal15TestFactoryImplI32BinarySearch_test_not_exist_TestEE, @object
	.size	_ZTIN7testing8internal15TestFactoryImplI32BinarySearch_test_not_exist_TestEE, 24
_ZTIN7testing8internal15TestFactoryImplI32BinarySearch_test_not_exist_TestEE:
# <anonymous>:
# <anonymous>:
	.quad	_ZTVN10__cxxabiv120__si_class_type_infoE+16
# <anonymous>:
	.quad	_ZTSN7testing8internal15TestFactoryImplI32BinarySearch_test_not_exist_TestEE
# <anonymous>:
	.quad	_ZTIN7testing8internal15TestFactoryBaseE
	.weak	_ZTSN7testing8internal15TestFactoryImplI32BinarySearch_test_not_exist_TestEE
	.section	.rodata._ZTSN7testing8internal15TestFactoryImplI32BinarySearch_test_not_exist_TestEE,"aG",@progbits,_ZTSN7testing8internal15TestFactoryImplI32BinarySearch_test_not_exist_TestEE,comdat
	.align 32
	.type	_ZTSN7testing8internal15TestFactoryImplI32BinarySearch_test_not_exist_TestEE, @object
	.size	_ZTSN7testing8internal15TestFactoryImplI32BinarySearch_test_not_exist_TestEE, 73
_ZTSN7testing8internal15TestFactoryImplI32BinarySearch_test_not_exist_TestEE:
	.string	"N7testing8internal15TestFactoryImplI32BinarySearch_test_not_exist_TestEE"
	.weak	_ZTI32BinarySearch_test_not_exist_Test
	.section	.data.rel.ro._ZTI32BinarySearch_test_not_exist_Test,"awG",@progbits,_ZTI32BinarySearch_test_not_exist_Test,comdat
	.align 8
	.type	_ZTI32BinarySearch_test_not_exist_Test, @object
	.size	_ZTI32BinarySearch_test_not_exist_Test, 24
_ZTI32BinarySearch_test_not_exist_Test:
# <anonymous>:
# <anonymous>:
	.quad	_ZTVN10__cxxabiv120__si_class_type_infoE+16
# <anonymous>:
	.quad	_ZTS32BinarySearch_test_not_exist_Test
# <anonymous>:
	.quad	_ZTIN7testing4TestE
	.weak	_ZTS32BinarySearch_test_not_exist_Test
	.section	.rodata._ZTS32BinarySearch_test_not_exist_Test,"aG",@progbits,_ZTS32BinarySearch_test_not_exist_Test,comdat
	.align 32
	.type	_ZTS32BinarySearch_test_not_exist_Test, @object
	.size	_ZTS32BinarySearch_test_not_exist_Test, 35
_ZTS32BinarySearch_test_not_exist_Test:
	.string	"32BinarySearch_test_not_exist_Test"
	.weak	_ZTIN7testing8internal15TestFactoryImplI33BinarySearch_test_mixed_even_TestEE
	.section	.data.rel.ro._ZTIN7testing8internal15TestFactoryImplI33BinarySearch_test_mixed_even_TestEE,"awG",@progbits,_ZTIN7testing8internal15TestFactoryImplI33BinarySearch_test_mixed_even_TestEE,comdat
	.align 8
	.type	_ZTIN7testing8internal15TestFactoryImplI33BinarySearch_test_mixed_even_TestEE, @object
	.size	_ZTIN7testing8internal15TestFactoryImplI33BinarySearch_test_mixed_even_TestEE, 24
_ZTIN7testing8internal15TestFactoryImplI33BinarySearch_test_mixed_even_TestEE:
# <anonymous>:
# <anonymous>:
	.quad	_ZTVN10__cxxabiv120__si_class_type_infoE+16
# <anonymous>:
	.quad	_ZTSN7testing8internal15TestFactoryImplI33BinarySearch_test_mixed_even_TestEE
# <anonymous>:
	.quad	_ZTIN7testing8internal15TestFactoryBaseE
	.weak	_ZTSN7testing8internal15TestFactoryImplI33BinarySearch_test_mixed_even_TestEE
	.section	.rodata._ZTSN7testing8internal15TestFactoryImplI33BinarySearch_test_mixed_even_TestEE,"aG",@progbits,_ZTSN7testing8internal15TestFactoryImplI33BinarySearch_test_mixed_even_TestEE,comdat
	.align 32
	.type	_ZTSN7testing8internal15TestFactoryImplI33BinarySearch_test_mixed_even_TestEE, @object
	.size	_ZTSN7testing8internal15TestFactoryImplI33BinarySearch_test_mixed_even_TestEE, 74
_ZTSN7testing8internal15TestFactoryImplI33BinarySearch_test_mixed_even_TestEE:
	.string	"N7testing8internal15TestFactoryImplI33BinarySearch_test_mixed_even_TestEE"
	.weak	_ZTI33BinarySearch_test_mixed_even_Test
	.section	.data.rel.ro._ZTI33BinarySearch_test_mixed_even_Test,"awG",@progbits,_ZTI33BinarySearch_test_mixed_even_Test,comdat
	.align 8
	.type	_ZTI33BinarySearch_test_mixed_even_Test, @object
	.size	_ZTI33BinarySearch_test_mixed_even_Test, 24
_ZTI33BinarySearch_test_mixed_even_Test:
# <anonymous>:
# <anonymous>:
	.quad	_ZTVN10__cxxabiv120__si_class_type_infoE+16
# <anonymous>:
	.quad	_ZTS33BinarySearch_test_mixed_even_Test
# <anonymous>:
	.quad	_ZTIN7testing4TestE
	.weak	_ZTS33BinarySearch_test_mixed_even_Test
	.section	.rodata._ZTS33BinarySearch_test_mixed_even_Test,"aG",@progbits,_ZTS33BinarySearch_test_mixed_even_Test,comdat
	.align 32
	.type	_ZTS33BinarySearch_test_mixed_even_Test, @object
	.size	_ZTS33BinarySearch_test_mixed_even_Test, 36
_ZTS33BinarySearch_test_mixed_even_Test:
	.string	"33BinarySearch_test_mixed_even_Test"
	.weak	_ZTIN7testing8internal15TestFactoryImplI32BinarySearch_test_mixed_odd_TestEE
	.section	.data.rel.ro._ZTIN7testing8internal15TestFactoryImplI32BinarySearch_test_mixed_odd_TestEE,"awG",@progbits,_ZTIN7testing8internal15TestFactoryImplI32BinarySearch_test_mixed_odd_TestEE,comdat
	.align 8
	.type	_ZTIN7testing8internal15TestFactoryImplI32BinarySearch_test_mixed_odd_TestEE, @object
	.size	_ZTIN7testing8internal15TestFactoryImplI32BinarySearch_test_mixed_odd_TestEE, 24
_ZTIN7testing8internal15TestFactoryImplI32BinarySearch_test_mixed_odd_TestEE:
# <anonymous>:
# <anonymous>:
	.quad	_ZTVN10__cxxabiv120__si_class_type_infoE+16
# <anonymous>:
	.quad	_ZTSN7testing8internal15TestFactoryImplI32BinarySearch_test_mixed_odd_TestEE
# <anonymous>:
	.quad	_ZTIN7testing8internal15TestFactoryBaseE
	.weak	_ZTSN7testing8internal15TestFactoryImplI32BinarySearch_test_mixed_odd_TestEE
	.section	.rodata._ZTSN7testing8internal15TestFactoryImplI32BinarySearch_test_mixed_odd_TestEE,"aG",@progbits,_ZTSN7testing8internal15TestFactoryImplI32BinarySearch_test_mixed_odd_TestEE,comdat
	.align 32
	.type	_ZTSN7testing8internal15TestFactoryImplI32BinarySearch_test_mixed_odd_TestEE, @object
	.size	_ZTSN7testing8internal15TestFactoryImplI32BinarySearch_test_mixed_odd_TestEE, 73
_ZTSN7testing8internal15TestFactoryImplI32BinarySearch_test_mixed_odd_TestEE:
	.string	"N7testing8internal15TestFactoryImplI32BinarySearch_test_mixed_odd_TestEE"
	.weak	_ZTI32BinarySearch_test_mixed_odd_Test
	.section	.data.rel.ro._ZTI32BinarySearch_test_mixed_odd_Test,"awG",@progbits,_ZTI32BinarySearch_test_mixed_odd_Test,comdat
	.align 8
	.type	_ZTI32BinarySearch_test_mixed_odd_Test, @object
	.size	_ZTI32BinarySearch_test_mixed_odd_Test, 24
_ZTI32BinarySearch_test_mixed_odd_Test:
# <anonymous>:
# <anonymous>:
	.quad	_ZTVN10__cxxabiv120__si_class_type_infoE+16
# <anonymous>:
	.quad	_ZTS32BinarySearch_test_mixed_odd_Test
# <anonymous>:
	.quad	_ZTIN7testing4TestE
	.weak	_ZTS32BinarySearch_test_mixed_odd_Test
	.section	.rodata._ZTS32BinarySearch_test_mixed_odd_Test,"aG",@progbits,_ZTS32BinarySearch_test_mixed_odd_Test,comdat
	.align 32
	.type	_ZTS32BinarySearch_test_mixed_odd_Test, @object
	.size	_ZTS32BinarySearch_test_mixed_odd_Test, 35
_ZTS32BinarySearch_test_mixed_odd_Test:
	.string	"32BinarySearch_test_mixed_odd_Test"
	.weak	_ZTIN7testing8internal15TestFactoryImplI36BinarySearch_test_negatvies_odd_TestEE
	.section	.data.rel.ro._ZTIN7testing8internal15TestFactoryImplI36BinarySearch_test_negatvies_odd_TestEE,"awG",@progbits,_ZTIN7testing8internal15TestFactoryImplI36BinarySearch_test_negatvies_odd_TestEE,comdat
	.align 8
	.type	_ZTIN7testing8internal15TestFactoryImplI36BinarySearch_test_negatvies_odd_TestEE, @object
	.size	_ZTIN7testing8internal15TestFactoryImplI36BinarySearch_test_negatvies_odd_TestEE, 24
_ZTIN7testing8internal15TestFactoryImplI36BinarySearch_test_negatvies_odd_TestEE:
# <anonymous>:
# <anonymous>:
	.quad	_ZTVN10__cxxabiv120__si_class_type_infoE+16
# <anonymous>:
	.quad	_ZTSN7testing8internal15TestFactoryImplI36BinarySearch_test_negatvies_odd_TestEE
# <anonymous>:
	.quad	_ZTIN7testing8internal15TestFactoryBaseE
	.weak	_ZTSN7testing8internal15TestFactoryImplI36BinarySearch_test_negatvies_odd_TestEE
	.section	.rodata._ZTSN7testing8internal15TestFactoryImplI36BinarySearch_test_negatvies_odd_TestEE,"aG",@progbits,_ZTSN7testing8internal15TestFactoryImplI36BinarySearch_test_negatvies_odd_TestEE,comdat
	.align 32
	.type	_ZTSN7testing8internal15TestFactoryImplI36BinarySearch_test_negatvies_odd_TestEE, @object
	.size	_ZTSN7testing8internal15TestFactoryImplI36BinarySearch_test_negatvies_odd_TestEE, 77
_ZTSN7testing8internal15TestFactoryImplI36BinarySearch_test_negatvies_odd_TestEE:
	.string	"N7testing8internal15TestFactoryImplI36BinarySearch_test_negatvies_odd_TestEE"
	.weak	_ZTI36BinarySearch_test_negatvies_odd_Test
	.section	.data.rel.ro._ZTI36BinarySearch_test_negatvies_odd_Test,"awG",@progbits,_ZTI36BinarySearch_test_negatvies_odd_Test,comdat
	.align 8
	.type	_ZTI36BinarySearch_test_negatvies_odd_Test, @object
	.size	_ZTI36BinarySearch_test_negatvies_odd_Test, 24
_ZTI36BinarySearch_test_negatvies_odd_Test:
# <anonymous>:
# <anonymous>:
	.quad	_ZTVN10__cxxabiv120__si_class_type_infoE+16
# <anonymous>:
	.quad	_ZTS36BinarySearch_test_negatvies_odd_Test
# <anonymous>:
	.quad	_ZTIN7testing4TestE
	.weak	_ZTS36BinarySearch_test_negatvies_odd_Test
	.section	.rodata._ZTS36BinarySearch_test_negatvies_odd_Test,"aG",@progbits,_ZTS36BinarySearch_test_negatvies_odd_Test,comdat
	.align 32
	.type	_ZTS36BinarySearch_test_negatvies_odd_Test, @object
	.size	_ZTS36BinarySearch_test_negatvies_odd_Test, 39
_ZTS36BinarySearch_test_negatvies_odd_Test:
	.string	"36BinarySearch_test_negatvies_odd_Test"
	.weak	_ZTIN7testing8internal15TestFactoryImplI37BinarySearch_test_negatvies_even_TestEE
	.section	.data.rel.ro._ZTIN7testing8internal15TestFactoryImplI37BinarySearch_test_negatvies_even_TestEE,"awG",@progbits,_ZTIN7testing8internal15TestFactoryImplI37BinarySearch_test_negatvies_even_TestEE,comdat
	.align 8
	.type	_ZTIN7testing8internal15TestFactoryImplI37BinarySearch_test_negatvies_even_TestEE, @object
	.size	_ZTIN7testing8internal15TestFactoryImplI37BinarySearch_test_negatvies_even_TestEE, 24
_ZTIN7testing8internal15TestFactoryImplI37BinarySearch_test_negatvies_even_TestEE:
# <anonymous>:
# <anonymous>:
	.quad	_ZTVN10__cxxabiv120__si_class_type_infoE+16
# <anonymous>:
	.quad	_ZTSN7testing8internal15TestFactoryImplI37BinarySearch_test_negatvies_even_TestEE
# <anonymous>:
	.quad	_ZTIN7testing8internal15TestFactoryBaseE
	.weak	_ZTSN7testing8internal15TestFactoryImplI37BinarySearch_test_negatvies_even_TestEE
	.section	.rodata._ZTSN7testing8internal15TestFactoryImplI37BinarySearch_test_negatvies_even_TestEE,"aG",@progbits,_ZTSN7testing8internal15TestFactoryImplI37BinarySearch_test_negatvies_even_TestEE,comdat
	.align 32
	.type	_ZTSN7testing8internal15TestFactoryImplI37BinarySearch_test_negatvies_even_TestEE, @object
	.size	_ZTSN7testing8internal15TestFactoryImplI37BinarySearch_test_negatvies_even_TestEE, 78
_ZTSN7testing8internal15TestFactoryImplI37BinarySearch_test_negatvies_even_TestEE:
	.string	"N7testing8internal15TestFactoryImplI37BinarySearch_test_negatvies_even_TestEE"
	.weak	_ZTI37BinarySearch_test_negatvies_even_Test
	.section	.data.rel.ro._ZTI37BinarySearch_test_negatvies_even_Test,"awG",@progbits,_ZTI37BinarySearch_test_negatvies_even_Test,comdat
	.align 8
	.type	_ZTI37BinarySearch_test_negatvies_even_Test, @object
	.size	_ZTI37BinarySearch_test_negatvies_even_Test, 24
_ZTI37BinarySearch_test_negatvies_even_Test:
# <anonymous>:
# <anonymous>:
	.quad	_ZTVN10__cxxabiv120__si_class_type_infoE+16
# <anonymous>:
	.quad	_ZTS37BinarySearch_test_negatvies_even_Test
# <anonymous>:
	.quad	_ZTIN7testing4TestE
	.weak	_ZTS37BinarySearch_test_negatvies_even_Test
	.section	.rodata._ZTS37BinarySearch_test_negatvies_even_Test,"aG",@progbits,_ZTS37BinarySearch_test_negatvies_even_Test,comdat
	.align 32
	.type	_ZTS37BinarySearch_test_negatvies_even_Test, @object
	.size	_ZTS37BinarySearch_test_negatvies_even_Test, 40
_ZTS37BinarySearch_test_negatvies_even_Test:
	.string	"37BinarySearch_test_negatvies_even_Test"
	.weak	_ZTIN7testing8internal15TestFactoryImplI36BinarySearch_test_positives_odd_TestEE
	.section	.data.rel.ro._ZTIN7testing8internal15TestFactoryImplI36BinarySearch_test_positives_odd_TestEE,"awG",@progbits,_ZTIN7testing8internal15TestFactoryImplI36BinarySearch_test_positives_odd_TestEE,comdat
	.align 8
	.type	_ZTIN7testing8internal15TestFactoryImplI36BinarySearch_test_positives_odd_TestEE, @object
	.size	_ZTIN7testing8internal15TestFactoryImplI36BinarySearch_test_positives_odd_TestEE, 24
_ZTIN7testing8internal15TestFactoryImplI36BinarySearch_test_positives_odd_TestEE:
# <anonymous>:
# <anonymous>:
	.quad	_ZTVN10__cxxabiv120__si_class_type_infoE+16
# <anonymous>:
	.quad	_ZTSN7testing8internal15TestFactoryImplI36BinarySearch_test_positives_odd_TestEE
# <anonymous>:
	.quad	_ZTIN7testing8internal15TestFactoryBaseE
	.weak	_ZTSN7testing8internal15TestFactoryImplI36BinarySearch_test_positives_odd_TestEE
	.section	.rodata._ZTSN7testing8internal15TestFactoryImplI36BinarySearch_test_positives_odd_TestEE,"aG",@progbits,_ZTSN7testing8internal15TestFactoryImplI36BinarySearch_test_positives_odd_TestEE,comdat
	.align 32
	.type	_ZTSN7testing8internal15TestFactoryImplI36BinarySearch_test_positives_odd_TestEE, @object
	.size	_ZTSN7testing8internal15TestFactoryImplI36BinarySearch_test_positives_odd_TestEE, 77
_ZTSN7testing8internal15TestFactoryImplI36BinarySearch_test_positives_odd_TestEE:
	.string	"N7testing8internal15TestFactoryImplI36BinarySearch_test_positives_odd_TestEE"
	.weak	_ZTI36BinarySearch_test_positives_odd_Test
	.section	.data.rel.ro._ZTI36BinarySearch_test_positives_odd_Test,"awG",@progbits,_ZTI36BinarySearch_test_positives_odd_Test,comdat
	.align 8
	.type	_ZTI36BinarySearch_test_positives_odd_Test, @object
	.size	_ZTI36BinarySearch_test_positives_odd_Test, 24
_ZTI36BinarySearch_test_positives_odd_Test:
# <anonymous>:
# <anonymous>:
	.quad	_ZTVN10__cxxabiv120__si_class_type_infoE+16
# <anonymous>:
	.quad	_ZTS36BinarySearch_test_positives_odd_Test
# <anonymous>:
	.quad	_ZTIN7testing4TestE
	.weak	_ZTS36BinarySearch_test_positives_odd_Test
	.section	.rodata._ZTS36BinarySearch_test_positives_odd_Test,"aG",@progbits,_ZTS36BinarySearch_test_positives_odd_Test,comdat
	.align 32
	.type	_ZTS36BinarySearch_test_positives_odd_Test, @object
	.size	_ZTS36BinarySearch_test_positives_odd_Test, 39
_ZTS36BinarySearch_test_positives_odd_Test:
	.string	"36BinarySearch_test_positives_odd_Test"
	.weak	_ZTIN7testing8internal15TestFactoryImplI37BinarySearch_test_positives_even_TestEE
	.section	.data.rel.ro._ZTIN7testing8internal15TestFactoryImplI37BinarySearch_test_positives_even_TestEE,"awG",@progbits,_ZTIN7testing8internal15TestFactoryImplI37BinarySearch_test_positives_even_TestEE,comdat
	.align 8
	.type	_ZTIN7testing8internal15TestFactoryImplI37BinarySearch_test_positives_even_TestEE, @object
	.size	_ZTIN7testing8internal15TestFactoryImplI37BinarySearch_test_positives_even_TestEE, 24
_ZTIN7testing8internal15TestFactoryImplI37BinarySearch_test_positives_even_TestEE:
# <anonymous>:
# <anonymous>:
	.quad	_ZTVN10__cxxabiv120__si_class_type_infoE+16
# <anonymous>:
	.quad	_ZTSN7testing8internal15TestFactoryImplI37BinarySearch_test_positives_even_TestEE
# <anonymous>:
	.quad	_ZTIN7testing8internal15TestFactoryBaseE
	.weak	_ZTSN7testing8internal15TestFactoryImplI37BinarySearch_test_positives_even_TestEE
	.section	.rodata._ZTSN7testing8internal15TestFactoryImplI37BinarySearch_test_positives_even_TestEE,"aG",@progbits,_ZTSN7testing8internal15TestFactoryImplI37BinarySearch_test_positives_even_TestEE,comdat
	.align 32
	.type	_ZTSN7testing8internal15TestFactoryImplI37BinarySearch_test_positives_even_TestEE, @object
	.size	_ZTSN7testing8internal15TestFactoryImplI37BinarySearch_test_positives_even_TestEE, 78
_ZTSN7testing8internal15TestFactoryImplI37BinarySearch_test_positives_even_TestEE:
	.string	"N7testing8internal15TestFactoryImplI37BinarySearch_test_positives_even_TestEE"
	.weak	_ZTI37BinarySearch_test_positives_even_Test
	.section	.data.rel.ro._ZTI37BinarySearch_test_positives_even_Test,"awG",@progbits,_ZTI37BinarySearch_test_positives_even_Test,comdat
	.align 8
	.type	_ZTI37BinarySearch_test_positives_even_Test, @object
	.size	_ZTI37BinarySearch_test_positives_even_Test, 24
_ZTI37BinarySearch_test_positives_even_Test:
# <anonymous>:
# <anonymous>:
	.quad	_ZTVN10__cxxabiv120__si_class_type_infoE+16
# <anonymous>:
	.quad	_ZTS37BinarySearch_test_positives_even_Test
# <anonymous>:
	.quad	_ZTIN7testing4TestE
	.weak	_ZTS37BinarySearch_test_positives_even_Test
	.section	.rodata._ZTS37BinarySearch_test_positives_even_Test,"aG",@progbits,_ZTS37BinarySearch_test_positives_even_Test,comdat
	.align 32
	.type	_ZTS37BinarySearch_test_positives_even_Test, @object
	.size	_ZTS37BinarySearch_test_positives_even_Test, 40
_ZTS37BinarySearch_test_positives_even_Test:
	.string	"37BinarySearch_test_positives_even_Test"
	.weak	_ZTIN7testing8internal15TestFactoryBaseE
	.section	.data.rel.ro._ZTIN7testing8internal15TestFactoryBaseE,"awG",@progbits,_ZTIN7testing8internal15TestFactoryBaseE,comdat
	.align 8
	.type	_ZTIN7testing8internal15TestFactoryBaseE, @object
	.size	_ZTIN7testing8internal15TestFactoryBaseE, 16
_ZTIN7testing8internal15TestFactoryBaseE:
# <anonymous>:
# <anonymous>:
	.quad	_ZTVN10__cxxabiv117__class_type_infoE+16
# <anonymous>:
	.quad	_ZTSN7testing8internal15TestFactoryBaseE
	.weak	_ZTSN7testing8internal15TestFactoryBaseE
	.section	.rodata._ZTSN7testing8internal15TestFactoryBaseE,"aG",@progbits,_ZTSN7testing8internal15TestFactoryBaseE,comdat
	.align 32
	.type	_ZTSN7testing8internal15TestFactoryBaseE, @object
	.size	_ZTSN7testing8internal15TestFactoryBaseE, 37
_ZTSN7testing8internal15TestFactoryBaseE:
	.string	"N7testing8internal15TestFactoryBaseE"
	.weak	_ZTI19SearchValueNotFound
	.section	.data.rel.ro._ZTI19SearchValueNotFound,"awG",@progbits,_ZTI19SearchValueNotFound,comdat
	.align 8
	.type	_ZTI19SearchValueNotFound, @object
	.size	_ZTI19SearchValueNotFound, 24
_ZTI19SearchValueNotFound:
# <anonymous>:
# <anonymous>:
	.quad	_ZTVN10__cxxabiv120__si_class_type_infoE+16
# <anonymous>:
	.quad	_ZTS19SearchValueNotFound
# <anonymous>:
	.quad	_ZTISt13runtime_error
	.weak	_ZTS19SearchValueNotFound
	.section	.rodata._ZTS19SearchValueNotFound,"aG",@progbits,_ZTS19SearchValueNotFound,comdat
	.align 16
	.type	_ZTS19SearchValueNotFound, @object
	.size	_ZTS19SearchValueNotFound, 22
_ZTS19SearchValueNotFound:
	.string	"19SearchValueNotFound"
	.section	.rodata
.LC22:
	.string	"test_positives_even"
.LC23:
	.string	"BinarySearch"
.LC24:
	.string	"test_positives_odd"
.LC25:
	.string	"test_negatvies_even"
.LC26:
	.string	"test_negatvies_odd"
.LC27:
	.string	"test_mixed_odd"
.LC28:
	.string	"test_mixed_even"
.LC29:
	.string	"test_not_exist"
.LC30:
	.string	"test_different_type"
	.text
	.type	_Z41__static_initialization_and_destruction_0ii, @function
_Z41__static_initialization_and_destruction_0ii:
.LFB5293:
	.loc 6 79 0
	.cfi_startproc
	.cfi_personality 0x9b,DW.ref.__gxx_personality_v0
	.cfi_lsda 0x1b,.LLSDA5293
	push	rbp	#
	.cfi_def_cfa_offset 16
	.cfi_offset 6, -16
	mov	rbp, rsp	#,
	.cfi_def_cfa_register 6
	push	r12	#
	push	rbx	#
	sub	rsp, 784	#,
	.cfi_offset 12, -24
	.cfi_offset 3, -32
	mov	DWORD PTR -788[rbp], edi	# __initialize_p, __initialize_p
	mov	DWORD PTR -792[rbp], esi	# __priority, __priority
	.loc 6 79 0
	cmp	DWORD PTR -788[rbp], 1	# __initialize_p,
	jne	.L306	#,
	.loc 6 79 0 is_stmt 0 discriminator 1
	cmp	DWORD PTR -792[rbp], 65535	# __priority,
	jne	.L306	#,
	.file 10 "/usr/include/c++/6/iostream"
	.loc 10 74 0 is_stmt 1
	lea	rdi, _ZStL8__ioinit[rip]	#,
.LEHB93:
	call	_ZNSt8ios_base4InitC1Ev@PLT	#
	lea	rdx, __dso_handle[rip]	#,
	lea	rsi, _ZStL8__ioinit[rip]	#,
	mov	rax, QWORD PTR _ZNSt8ios_base4InitD1Ev@GOTPCREL[rip]	# tmp119,
	mov	rdi, rax	#, tmp119
	call	__cxa_atexit@PLT	#
	.loc 6 4 0
	mov	edi, 8	#,
	call	_Znwm@PLT	#
	mov	rbx, rax	# _24, tmp120
	mov	rdi, rbx	#, _24
	call	_ZN7testing8internal15TestFactoryImplI37BinarySearch_test_positives_even_TestEC1Ev	#
	call	_ZN7testing8internal13GetTestTypeIdEv@PLT	#
.LEHE93:
	mov	r12, rax	# _28,
	lea	rax, -689[rbp]	# tmp121,
	mov	rdi, rax	#, tmp121
	call	_ZNSaIcEC1Ev@PLT	#
	lea	rdx, -689[rbp]	# tmp122,
	lea	rax, -736[rbp]	# tmp123,
	lea	rsi, .LC3[rip]	#,
	mov	rdi, rax	#, tmp123
.LEHB94:
	call	_ZNSt7__cxx1112basic_stringIcSt11char_traitsIcESaIcEEC1EPKcRKS3_@PLT	#
.LEHE94:
	.loc 6 4 0 is_stmt 0 discriminator 2
	lea	rcx, -736[rbp]	# tmp124,
	lea	rax, -784[rbp]	# tmp125,
	mov	edx, 4	#,
	mov	rsi, rcx	#, tmp124
	mov	rdi, rax	#, tmp125
.LEHB95:
	call	_ZN7testing8internal12CodeLocationC1ERKNSt7__cxx1112basic_stringIcSt11char_traitsIcESaIcEEEi	#
.LEHE95:
	.loc 6 4 0 discriminator 4
	lea	rdx, -784[rbp]	# tmp126,
	sub	rsp, 8	#,
	push	rbx	# _24
	lea	rax, _ZN7testing4Test16TearDownTestCaseEv[rip]	# tmp127,
	push	rax	# tmp127
	lea	rax, _ZN7testing4Test13SetUpTestCaseEv[rip]	# tmp128,
	push	rax	# tmp128
	mov	r9, r12	#, _28
	mov	r8, rdx	#, tmp126
	mov	ecx, 0	#,
	mov	edx, 0	#,
	lea	rsi, .LC22[rip]	#,
	lea	rdi, .LC23[rip]	#,
.LEHB96:
	.cfi_escape 0x2e,0x20
	call	_ZN7testing8internal23MakeAndRegisterTestInfoEPKcS2_S2_S2_NS0_12CodeLocationEPKvPFvvES7_PNS0_15TestFactoryBaseE@PLT	#
.LEHE96:
	add	rsp, 32	#,
	mov	QWORD PTR _ZN37BinarySearch_test_positives_even_Test10test_info_E[rip], rax	# test_info_, _34
	lea	rax, -784[rbp]	# tmp129,
	mov	rdi, rax	#, tmp129
	call	_ZN7testing8internal12CodeLocationD1Ev	#
	lea	rax, -736[rbp]	# tmp130,
	mov	rdi, rax	#, tmp130
	call	_ZNSt7__cxx1112basic_stringIcSt11char_traitsIcESaIcEED1Ev@PLT	#
	lea	rax, -689[rbp]	# tmp131,
	mov	rdi, rax	#, tmp131
	call	_ZNSaIcED1Ev@PLT	#
	.loc 6 14 0 is_stmt 1 discriminator 4
	mov	edi, 8	#,
.LEHB97:
	call	_Znwm@PLT	#
	mov	rbx, rax	# _44, tmp132
	mov	rdi, rbx	#, _44
	call	_ZN7testing8internal15TestFactoryImplI36BinarySearch_test_positives_odd_TestEC1Ev	#
	call	_ZN7testing8internal13GetTestTypeIdEv@PLT	#
.LEHE97:
	mov	r12, rax	# _48,
	lea	rax, -593[rbp]	# tmp133,
	mov	rdi, rax	#, tmp133
	call	_ZNSaIcEC1Ev@PLT	#
	lea	rdx, -593[rbp]	# tmp134,
	lea	rax, -640[rbp]	# tmp135,
	lea	rsi, .LC3[rip]	#,
	mov	rdi, rax	#, tmp135
.LEHB98:
	.cfi_escape 0x2e,0
	call	_ZNSt7__cxx1112basic_stringIcSt11char_traitsIcESaIcEEC1EPKcRKS3_@PLT	#
.LEHE98:
	.loc 6 14 0 is_stmt 0 discriminator 2
	lea	rcx, -640[rbp]	# tmp136,
	lea	rax, -688[rbp]	# tmp137,
	mov	edx, 14	#,
	mov	rsi, rcx	#, tmp136
	mov	rdi, rax	#, tmp137
.LEHB99:
	call	_ZN7testing8internal12CodeLocationC1ERKNSt7__cxx1112basic_stringIcSt11char_traitsIcESaIcEEEi	#
.LEHE99:
	.loc 6 14 0 discriminator 4
	lea	rdx, -688[rbp]	# tmp138,
	sub	rsp, 8	#,
	push	rbx	# _44
	lea	rax, _ZN7testing4Test16TearDownTestCaseEv[rip]	# tmp139,
	push	rax	# tmp139
	lea	rax, _ZN7testing4Test13SetUpTestCaseEv[rip]	# tmp140,
	push	rax	# tmp140
	mov	r9, r12	#, _48
	mov	r8, rdx	#, tmp138
	mov	ecx, 0	#,
	mov	edx, 0	#,
	lea	rsi, .LC24[rip]	#,
	lea	rdi, .LC23[rip]	#,
.LEHB100:
	.cfi_escape 0x2e,0x20
	call	_ZN7testing8internal23MakeAndRegisterTestInfoEPKcS2_S2_S2_NS0_12CodeLocationEPKvPFvvES7_PNS0_15TestFactoryBaseE@PLT	#
.LEHE100:
	add	rsp, 32	#,
	mov	QWORD PTR _ZN36BinarySearch_test_positives_odd_Test10test_info_E[rip], rax	# test_info_, _54
	lea	rax, -688[rbp]	# tmp141,
	mov	rdi, rax	#, tmp141
	call	_ZN7testing8internal12CodeLocationD1Ev	#
	lea	rax, -640[rbp]	# tmp142,
	mov	rdi, rax	#, tmp142
	call	_ZNSt7__cxx1112basic_stringIcSt11char_traitsIcESaIcEED1Ev@PLT	#
	lea	rax, -593[rbp]	# tmp143,
	mov	rdi, rax	#, tmp143
	call	_ZNSaIcED1Ev@PLT	#
	.loc 6 24 0 is_stmt 1 discriminator 4
	mov	edi, 8	#,
.LEHB101:
	call	_Znwm@PLT	#
	mov	rbx, rax	# _64, tmp144
	mov	rdi, rbx	#, _64
	call	_ZN7testing8internal15TestFactoryImplI37BinarySearch_test_negatvies_even_TestEC1Ev	#
	call	_ZN7testing8internal13GetTestTypeIdEv@PLT	#
.LEHE101:
	mov	r12, rax	# _68,
	lea	rax, -497[rbp]	# tmp145,
	mov	rdi, rax	#, tmp145
	call	_ZNSaIcEC1Ev@PLT	#
	lea	rdx, -497[rbp]	# tmp146,
	lea	rax, -544[rbp]	# tmp147,
	lea	rsi, .LC3[rip]	#,
	mov	rdi, rax	#, tmp147
.LEHB102:
	.cfi_escape 0x2e,0
	call	_ZNSt7__cxx1112basic_stringIcSt11char_traitsIcESaIcEEC1EPKcRKS3_@PLT	#
.LEHE102:
	.loc 6 24 0 is_stmt 0 discriminator 2
	lea	rcx, -544[rbp]	# tmp148,
	lea	rax, -592[rbp]	# tmp149,
	mov	edx, 24	#,
	mov	rsi, rcx	#, tmp148
	mov	rdi, rax	#, tmp149
.LEHB103:
	call	_ZN7testing8internal12CodeLocationC1ERKNSt7__cxx1112basic_stringIcSt11char_traitsIcESaIcEEEi	#
.LEHE103:
	.loc 6 24 0 discriminator 4
	lea	rdx, -592[rbp]	# tmp150,
	sub	rsp, 8	#,
	push	rbx	# _64
	lea	rax, _ZN7testing4Test16TearDownTestCaseEv[rip]	# tmp151,
	push	rax	# tmp151
	lea	rax, _ZN7testing4Test13SetUpTestCaseEv[rip]	# tmp152,
	push	rax	# tmp152
	mov	r9, r12	#, _68
	mov	r8, rdx	#, tmp150
	mov	ecx, 0	#,
	mov	edx, 0	#,
	lea	rsi, .LC25[rip]	#,
	lea	rdi, .LC23[rip]	#,
.LEHB104:
	.cfi_escape 0x2e,0x20
	call	_ZN7testing8internal23MakeAndRegisterTestInfoEPKcS2_S2_S2_NS0_12CodeLocationEPKvPFvvES7_PNS0_15TestFactoryBaseE@PLT	#
.LEHE104:
	add	rsp, 32	#,
	mov	QWORD PTR _ZN37BinarySearch_test_negatvies_even_Test10test_info_E[rip], rax	# test_info_, _74
	lea	rax, -592[rbp]	# tmp153,
	mov	rdi, rax	#, tmp153
	call	_ZN7testing8internal12CodeLocationD1Ev	#
	lea	rax, -544[rbp]	# tmp154,
	mov	rdi, rax	#, tmp154
	call	_ZNSt7__cxx1112basic_stringIcSt11char_traitsIcESaIcEED1Ev@PLT	#
	lea	rax, -497[rbp]	# tmp155,
	mov	rdi, rax	#, tmp155
	call	_ZNSaIcED1Ev@PLT	#
	.loc 6 34 0 is_stmt 1 discriminator 4
	mov	edi, 8	#,
.LEHB105:
	call	_Znwm@PLT	#
	mov	rbx, rax	# _84, tmp156
	mov	rdi, rbx	#, _84
	call	_ZN7testing8internal15TestFactoryImplI36BinarySearch_test_negatvies_odd_TestEC1Ev	#
	call	_ZN7testing8internal13GetTestTypeIdEv@PLT	#
.LEHE105:
	mov	r12, rax	# _88,
	lea	rax, -401[rbp]	# tmp157,
	mov	rdi, rax	#, tmp157
	call	_ZNSaIcEC1Ev@PLT	#
	lea	rdx, -401[rbp]	# tmp158,
	lea	rax, -448[rbp]	# tmp159,
	lea	rsi, .LC3[rip]	#,
	mov	rdi, rax	#, tmp159
.LEHB106:
	.cfi_escape 0x2e,0
	call	_ZNSt7__cxx1112basic_stringIcSt11char_traitsIcESaIcEEC1EPKcRKS3_@PLT	#
.LEHE106:
	.loc 6 34 0 is_stmt 0 discriminator 2
	lea	rcx, -448[rbp]	# tmp160,
	lea	rax, -496[rbp]	# tmp161,
	mov	edx, 34	#,
	mov	rsi, rcx	#, tmp160
	mov	rdi, rax	#, tmp161
.LEHB107:
	call	_ZN7testing8internal12CodeLocationC1ERKNSt7__cxx1112basic_stringIcSt11char_traitsIcESaIcEEEi	#
.LEHE107:
	.loc 6 34 0 discriminator 4
	lea	rdx, -496[rbp]	# tmp162,
	sub	rsp, 8	#,
	push	rbx	# _84
	lea	rax, _ZN7testing4Test16TearDownTestCaseEv[rip]	# tmp163,
	push	rax	# tmp163
	lea	rax, _ZN7testing4Test13SetUpTestCaseEv[rip]	# tmp164,
	push	rax	# tmp164
	mov	r9, r12	#, _88
	mov	r8, rdx	#, tmp162
	mov	ecx, 0	#,
	mov	edx, 0	#,
	lea	rsi, .LC26[rip]	#,
	lea	rdi, .LC23[rip]	#,
.LEHB108:
	.cfi_escape 0x2e,0x20
	call	_ZN7testing8internal23MakeAndRegisterTestInfoEPKcS2_S2_S2_NS0_12CodeLocationEPKvPFvvES7_PNS0_15TestFactoryBaseE@PLT	#
.LEHE108:
	add	rsp, 32	#,
	mov	QWORD PTR _ZN36BinarySearch_test_negatvies_odd_Test10test_info_E[rip], rax	# test_info_, _94
	lea	rax, -496[rbp]	# tmp165,
	mov	rdi, rax	#, tmp165
	call	_ZN7testing8internal12CodeLocationD1Ev	#
	lea	rax, -448[rbp]	# tmp166,
	mov	rdi, rax	#, tmp166
	call	_ZNSt7__cxx1112basic_stringIcSt11char_traitsIcESaIcEED1Ev@PLT	#
	lea	rax, -401[rbp]	# tmp167,
	mov	rdi, rax	#, tmp167
	call	_ZNSaIcED1Ev@PLT	#
	.loc 6 44 0 is_stmt 1 discriminator 4
	mov	edi, 8	#,
.LEHB109:
	call	_Znwm@PLT	#
	mov	rbx, rax	# _104, tmp168
	mov	rdi, rbx	#, _104
	call	_ZN7testing8internal15TestFactoryImplI32BinarySearch_test_mixed_odd_TestEC1Ev	#
	call	_ZN7testing8internal13GetTestTypeIdEv@PLT	#
.LEHE109:
	mov	r12, rax	# _108,
	lea	rax, -305[rbp]	# tmp169,
	mov	rdi, rax	#, tmp169
	call	_ZNSaIcEC1Ev@PLT	#
	lea	rdx, -305[rbp]	# tmp170,
	lea	rax, -352[rbp]	# tmp171,
	lea	rsi, .LC3[rip]	#,
	mov	rdi, rax	#, tmp171
.LEHB110:
	.cfi_escape 0x2e,0
	call	_ZNSt7__cxx1112basic_stringIcSt11char_traitsIcESaIcEEC1EPKcRKS3_@PLT	#
.LEHE110:
	.loc 6 44 0 is_stmt 0 discriminator 2
	lea	rcx, -352[rbp]	# tmp172,
	lea	rax, -400[rbp]	# tmp173,
	mov	edx, 44	#,
	mov	rsi, rcx	#, tmp172
	mov	rdi, rax	#, tmp173
.LEHB111:
	call	_ZN7testing8internal12CodeLocationC1ERKNSt7__cxx1112basic_stringIcSt11char_traitsIcESaIcEEEi	#
.LEHE111:
	.loc 6 44 0 discriminator 4
	lea	rdx, -400[rbp]	# tmp174,
	sub	rsp, 8	#,
	push	rbx	# _104
	lea	rax, _ZN7testing4Test16TearDownTestCaseEv[rip]	# tmp175,
	push	rax	# tmp175
	lea	rax, _ZN7testing4Test13SetUpTestCaseEv[rip]	# tmp176,
	push	rax	# tmp176
	mov	r9, r12	#, _108
	mov	r8, rdx	#, tmp174
	mov	ecx, 0	#,
	mov	edx, 0	#,
	lea	rsi, .LC27[rip]	#,
	lea	rdi, .LC23[rip]	#,
.LEHB112:
	.cfi_escape 0x2e,0x20
	call	_ZN7testing8internal23MakeAndRegisterTestInfoEPKcS2_S2_S2_NS0_12CodeLocationEPKvPFvvES7_PNS0_15TestFactoryBaseE@PLT	#
.LEHE112:
	add	rsp, 32	#,
	mov	QWORD PTR _ZN32BinarySearch_test_mixed_odd_Test10test_info_E[rip], rax	# test_info_, _114
	lea	rax, -400[rbp]	# tmp177,
	mov	rdi, rax	#, tmp177
	call	_ZN7testing8internal12CodeLocationD1Ev	#
	lea	rax, -352[rbp]	# tmp178,
	mov	rdi, rax	#, tmp178
	call	_ZNSt7__cxx1112basic_stringIcSt11char_traitsIcESaIcEED1Ev@PLT	#
	lea	rax, -305[rbp]	# tmp179,
	mov	rdi, rax	#, tmp179
	call	_ZNSaIcED1Ev@PLT	#
	.loc 6 54 0 is_stmt 1 discriminator 4
	mov	edi, 8	#,
.LEHB113:
	call	_Znwm@PLT	#
	mov	rbx, rax	# _124, tmp180
	mov	rdi, rbx	#, _124
	call	_ZN7testing8internal15TestFactoryImplI33BinarySearch_test_mixed_even_TestEC1Ev	#
	call	_ZN7testing8internal13GetTestTypeIdEv@PLT	#
.LEHE113:
	mov	r12, rax	# _128,
	lea	rax, -209[rbp]	# tmp181,
	mov	rdi, rax	#, tmp181
	call	_ZNSaIcEC1Ev@PLT	#
	lea	rdx, -209[rbp]	# tmp182,
	lea	rax, -256[rbp]	# tmp183,
	lea	rsi, .LC3[rip]	#,
	mov	rdi, rax	#, tmp183
.LEHB114:
	.cfi_escape 0x2e,0
	call	_ZNSt7__cxx1112basic_stringIcSt11char_traitsIcESaIcEEC1EPKcRKS3_@PLT	#
.LEHE114:
	.loc 6 54 0 is_stmt 0 discriminator 2
	lea	rcx, -256[rbp]	# tmp184,
	lea	rax, -304[rbp]	# tmp185,
	mov	edx, 54	#,
	mov	rsi, rcx	#, tmp184
	mov	rdi, rax	#, tmp185
.LEHB115:
	call	_ZN7testing8internal12CodeLocationC1ERKNSt7__cxx1112basic_stringIcSt11char_traitsIcESaIcEEEi	#
.LEHE115:
	.loc 6 54 0 discriminator 4
	lea	rdx, -304[rbp]	# tmp186,
	sub	rsp, 8	#,
	push	rbx	# _124
	lea	rax, _ZN7testing4Test16TearDownTestCaseEv[rip]	# tmp187,
	push	rax	# tmp187
	lea	rax, _ZN7testing4Test13SetUpTestCaseEv[rip]	# tmp188,
	push	rax	# tmp188
	mov	r9, r12	#, _128
	mov	r8, rdx	#, tmp186
	mov	ecx, 0	#,
	mov	edx, 0	#,
	lea	rsi, .LC28[rip]	#,
	lea	rdi, .LC23[rip]	#,
.LEHB116:
	.cfi_escape 0x2e,0x20
	call	_ZN7testing8internal23MakeAndRegisterTestInfoEPKcS2_S2_S2_NS0_12CodeLocationEPKvPFvvES7_PNS0_15TestFactoryBaseE@PLT	#
.LEHE116:
	add	rsp, 32	#,
	mov	QWORD PTR _ZN33BinarySearch_test_mixed_even_Test10test_info_E[rip], rax	# test_info_, _134
	lea	rax, -304[rbp]	# tmp189,
	mov	rdi, rax	#, tmp189
	call	_ZN7testing8internal12CodeLocationD1Ev	#
	lea	rax, -256[rbp]	# tmp190,
	mov	rdi, rax	#, tmp190
	call	_ZNSt7__cxx1112basic_stringIcSt11char_traitsIcESaIcEED1Ev@PLT	#
	lea	rax, -209[rbp]	# tmp191,
	mov	rdi, rax	#, tmp191
	call	_ZNSaIcED1Ev@PLT	#
	.loc 6 64 0 is_stmt 1 discriminator 4
	mov	edi, 8	#,
.LEHB117:
	call	_Znwm@PLT	#
	mov	rbx, rax	# _144, tmp192
	mov	rdi, rbx	#, _144
	call	_ZN7testing8internal15TestFactoryImplI32BinarySearch_test_not_exist_TestEC1Ev	#
	call	_ZN7testing8internal13GetTestTypeIdEv@PLT	#
.LEHE117:
	mov	r12, rax	# _148,
	lea	rax, -113[rbp]	# tmp193,
	mov	rdi, rax	#, tmp193
	call	_ZNSaIcEC1Ev@PLT	#
	lea	rdx, -113[rbp]	# tmp194,
	lea	rax, -160[rbp]	# tmp195,
	lea	rsi, .LC3[rip]	#,
	mov	rdi, rax	#, tmp195
.LEHB118:
	.cfi_escape 0x2e,0
	call	_ZNSt7__cxx1112basic_stringIcSt11char_traitsIcESaIcEEC1EPKcRKS3_@PLT	#
.LEHE118:
	.loc 6 64 0 is_stmt 0 discriminator 2
	lea	rcx, -160[rbp]	# tmp196,
	lea	rax, -208[rbp]	# tmp197,
	mov	edx, 64	#,
	mov	rsi, rcx	#, tmp196
	mov	rdi, rax	#, tmp197
.LEHB119:
	call	_ZN7testing8internal12CodeLocationC1ERKNSt7__cxx1112basic_stringIcSt11char_traitsIcESaIcEEEi	#
.LEHE119:
	.loc 6 64 0 discriminator 4
	lea	rdx, -208[rbp]	# tmp198,
	sub	rsp, 8	#,
	push	rbx	# _144
	lea	rax, _ZN7testing4Test16TearDownTestCaseEv[rip]	# tmp199,
	push	rax	# tmp199
	lea	rax, _ZN7testing4Test13SetUpTestCaseEv[rip]	# tmp200,
	push	rax	# tmp200
	mov	r9, r12	#, _148
	mov	r8, rdx	#, tmp198
	mov	ecx, 0	#,
	mov	edx, 0	#,
	lea	rsi, .LC29[rip]	#,
	lea	rdi, .LC23[rip]	#,
.LEHB120:
	.cfi_escape 0x2e,0x20
	call	_ZN7testing8internal23MakeAndRegisterTestInfoEPKcS2_S2_S2_NS0_12CodeLocationEPKvPFvvES7_PNS0_15TestFactoryBaseE@PLT	#
.LEHE120:
	add	rsp, 32	#,
	mov	QWORD PTR _ZN32BinarySearch_test_not_exist_Test10test_info_E[rip], rax	# test_info_, _154
	lea	rax, -208[rbp]	# tmp201,
	mov	rdi, rax	#, tmp201
	call	_ZN7testing8internal12CodeLocationD1Ev	#
	lea	rax, -160[rbp]	# tmp202,
	mov	rdi, rax	#, tmp202
	call	_ZNSt7__cxx1112basic_stringIcSt11char_traitsIcESaIcEED1Ev@PLT	#
	lea	rax, -113[rbp]	# tmp203,
	mov	rdi, rax	#, tmp203
	call	_ZNSaIcED1Ev@PLT	#
	.loc 6 71 0 is_stmt 1 discriminator 4
	mov	edi, 8	#,
.LEHB121:
	call	_Znwm@PLT	#
	mov	rbx, rax	# _164, tmp204
	mov	rdi, rbx	#, _164
	call	_ZN7testing8internal15TestFactoryImplI37BinarySearch_test_different_type_TestEC1Ev	#
	call	_ZN7testing8internal13GetTestTypeIdEv@PLT	#
.LEHE121:
	mov	r12, rax	# _168,
	lea	rax, -17[rbp]	# tmp205,
	mov	rdi, rax	#, tmp205
	call	_ZNSaIcEC1Ev@PLT	#
	lea	rdx, -17[rbp]	# tmp206,
	lea	rax, -64[rbp]	# tmp207,
	lea	rsi, .LC3[rip]	#,
	mov	rdi, rax	#, tmp207
.LEHB122:
	.cfi_escape 0x2e,0
	call	_ZNSt7__cxx1112basic_stringIcSt11char_traitsIcESaIcEEC1EPKcRKS3_@PLT	#
.LEHE122:
	.loc 6 71 0 is_stmt 0 discriminator 2
	lea	rcx, -64[rbp]	# tmp208,
	lea	rax, -112[rbp]	# tmp209,
	mov	edx, 71	#,
	mov	rsi, rcx	#, tmp208
	mov	rdi, rax	#, tmp209
.LEHB123:
	call	_ZN7testing8internal12CodeLocationC1ERKNSt7__cxx1112basic_stringIcSt11char_traitsIcESaIcEEEi	#
.LEHE123:
	.loc 6 71 0 discriminator 4
	lea	rdx, -112[rbp]	# tmp210,
	sub	rsp, 8	#,
	push	rbx	# _164
	lea	rax, _ZN7testing4Test16TearDownTestCaseEv[rip]	# tmp211,
	push	rax	# tmp211
	lea	rax, _ZN7testing4Test13SetUpTestCaseEv[rip]	# tmp212,
	push	rax	# tmp212
	mov	r9, r12	#, _168
	mov	r8, rdx	#, tmp210
	mov	ecx, 0	#,
	mov	edx, 0	#,
	lea	rsi, .LC30[rip]	#,
	lea	rdi, .LC23[rip]	#,
.LEHB124:
	.cfi_escape 0x2e,0x20
	call	_ZN7testing8internal23MakeAndRegisterTestInfoEPKcS2_S2_S2_NS0_12CodeLocationEPKvPFvvES7_PNS0_15TestFactoryBaseE@PLT	#
.LEHE124:
	add	rsp, 32	#,
	mov	QWORD PTR _ZN37BinarySearch_test_different_type_Test10test_info_E[rip], rax	# test_info_, _174
	lea	rax, -112[rbp]	# tmp213,
	mov	rdi, rax	#, tmp213
	call	_ZN7testing8internal12CodeLocationD1Ev	#
	lea	rax, -64[rbp]	# tmp214,
	mov	rdi, rax	#, tmp214
	call	_ZNSt7__cxx1112basic_stringIcSt11char_traitsIcESaIcEED1Ev@PLT	#
	lea	rax, -17[rbp]	# tmp215,
	mov	rdi, rax	#, tmp215
	call	_ZNSaIcED1Ev@PLT	#
	.loc 6 79 0 is_stmt 1 discriminator 4
	jmp	.L306	#
.L334:
	mov	rbx, rax	# tmp218,
	.loc 6 4 0
	lea	rax, -784[rbp]	# tmp216,
	mov	rdi, rax	#, tmp216
	call	_ZN7testing8internal12CodeLocationD1Ev	#
	jmp	.L309	#
.L333:
	mov	rbx, rax	# tmp217,
.L309:
	.loc 6 4 0 is_stmt 0 discriminator 3
	lea	rax, -736[rbp]	# tmp221,
	mov	rdi, rax	#, tmp221
	call	_ZNSt7__cxx1112basic_stringIcSt11char_traitsIcESaIcEED1Ev@PLT	#
	jmp	.L310	#
.L332:
	mov	rbx, rax	# tmp222,
.L310:
	.loc 6 4 0 discriminator 1
	lea	rax, -689[rbp]	# tmp224,
	mov	rdi, rax	#, tmp224
	call	_ZNSaIcED1Ev@PLT	#
	mov	rax, rbx	# D.116019, tmp222
	mov	rdi, rax	#, D.116019
.LEHB125:
	call	_Unwind_Resume@PLT	#
.L337:
	mov	rbx, rax	# tmp227,
	.loc 6 14 0 is_stmt 1
	lea	rax, -688[rbp]	# tmp225,
	mov	rdi, rax	#, tmp225
	call	_ZN7testing8internal12CodeLocationD1Ev	#
	jmp	.L312	#
.L336:
	mov	rbx, rax	# tmp226,
.L312:
	.loc 6 14 0 is_stmt 0 discriminator 3
	lea	rax, -640[rbp]	# tmp230,
	mov	rdi, rax	#, tmp230
	call	_ZNSt7__cxx1112basic_stringIcSt11char_traitsIcESaIcEED1Ev@PLT	#
	jmp	.L313	#
.L335:
	mov	rbx, rax	# tmp231,
.L313:
	.loc 6 14 0 discriminator 1
	lea	rax, -593[rbp]	# tmp233,
	mov	rdi, rax	#, tmp233
	call	_ZNSaIcED1Ev@PLT	#
	mov	rax, rbx	# D.116020, tmp231
	mov	rdi, rax	#, D.116020
	call	_Unwind_Resume@PLT	#
.L340:
	mov	rbx, rax	# tmp236,
	.loc 6 24 0 is_stmt 1
	lea	rax, -592[rbp]	# tmp234,
	mov	rdi, rax	#, tmp234
	call	_ZN7testing8internal12CodeLocationD1Ev	#
	jmp	.L315	#
.L339:
	mov	rbx, rax	# tmp235,
.L315:
	.loc 6 24 0 is_stmt 0 discriminator 3
	lea	rax, -544[rbp]	# tmp239,
	mov	rdi, rax	#, tmp239
	call	_ZNSt7__cxx1112basic_stringIcSt11char_traitsIcESaIcEED1Ev@PLT	#
	jmp	.L316	#
.L338:
	mov	rbx, rax	# tmp240,
.L316:
	.loc 6 24 0 discriminator 1
	lea	rax, -497[rbp]	# tmp242,
	mov	rdi, rax	#, tmp242
	call	_ZNSaIcED1Ev@PLT	#
	mov	rax, rbx	# D.116021, tmp240
	mov	rdi, rax	#, D.116021
	call	_Unwind_Resume@PLT	#
.L343:
	mov	rbx, rax	# tmp245,
	.loc 6 34 0 is_stmt 1
	lea	rax, -496[rbp]	# tmp243,
	mov	rdi, rax	#, tmp243
	call	_ZN7testing8internal12CodeLocationD1Ev	#
	jmp	.L318	#
.L342:
	mov	rbx, rax	# tmp244,
.L318:
	.loc 6 34 0 is_stmt 0 discriminator 3
	lea	rax, -448[rbp]	# tmp248,
	mov	rdi, rax	#, tmp248
	call	_ZNSt7__cxx1112basic_stringIcSt11char_traitsIcESaIcEED1Ev@PLT	#
	jmp	.L319	#
.L341:
	mov	rbx, rax	# tmp249,
.L319:
	.loc 6 34 0 discriminator 1
	lea	rax, -401[rbp]	# tmp251,
	mov	rdi, rax	#, tmp251
	call	_ZNSaIcED1Ev@PLT	#
	mov	rax, rbx	# D.116022, tmp249
	mov	rdi, rax	#, D.116022
	call	_Unwind_Resume@PLT	#
.L346:
	mov	rbx, rax	# tmp254,
	.loc 6 44 0 is_stmt 1
	lea	rax, -400[rbp]	# tmp252,
	mov	rdi, rax	#, tmp252
	call	_ZN7testing8internal12CodeLocationD1Ev	#
	jmp	.L321	#
.L345:
	mov	rbx, rax	# tmp253,
.L321:
	.loc 6 44 0 is_stmt 0 discriminator 3
	lea	rax, -352[rbp]	# tmp257,
	mov	rdi, rax	#, tmp257
	call	_ZNSt7__cxx1112basic_stringIcSt11char_traitsIcESaIcEED1Ev@PLT	#
	jmp	.L322	#
.L344:
	mov	rbx, rax	# tmp258,
.L322:
	.loc 6 44 0 discriminator 1
	lea	rax, -305[rbp]	# tmp260,
	mov	rdi, rax	#, tmp260
	call	_ZNSaIcED1Ev@PLT	#
	mov	rax, rbx	# D.116023, tmp258
	mov	rdi, rax	#, D.116023
	call	_Unwind_Resume@PLT	#
.L349:
	mov	rbx, rax	# tmp263,
	.loc 6 54 0 is_stmt 1
	lea	rax, -304[rbp]	# tmp261,
	mov	rdi, rax	#, tmp261
	call	_ZN7testing8internal12CodeLocationD1Ev	#
	jmp	.L324	#
.L348:
	mov	rbx, rax	# tmp262,
.L324:
	.loc 6 54 0 is_stmt 0 discriminator 3
	lea	rax, -256[rbp]	# tmp266,
	mov	rdi, rax	#, tmp266
	call	_ZNSt7__cxx1112basic_stringIcSt11char_traitsIcESaIcEED1Ev@PLT	#
	jmp	.L325	#
.L347:
	mov	rbx, rax	# tmp267,
.L325:
	.loc 6 54 0 discriminator 1
	lea	rax, -209[rbp]	# tmp269,
	mov	rdi, rax	#, tmp269
	call	_ZNSaIcED1Ev@PLT	#
	mov	rax, rbx	# D.116024, tmp267
	mov	rdi, rax	#, D.116024
	call	_Unwind_Resume@PLT	#
.L352:
	mov	rbx, rax	# tmp272,
	.loc 6 64 0 is_stmt 1
	lea	rax, -208[rbp]	# tmp270,
	mov	rdi, rax	#, tmp270
	call	_ZN7testing8internal12CodeLocationD1Ev	#
	jmp	.L327	#
.L351:
	mov	rbx, rax	# tmp271,
.L327:
	.loc 6 64 0 is_stmt 0 discriminator 3
	lea	rax, -160[rbp]	# tmp275,
	mov	rdi, rax	#, tmp275
	call	_ZNSt7__cxx1112basic_stringIcSt11char_traitsIcESaIcEED1Ev@PLT	#
	jmp	.L328	#
.L350:
	mov	rbx, rax	# tmp276,
.L328:
	.loc 6 64 0 discriminator 1
	lea	rax, -113[rbp]	# tmp278,
	mov	rdi, rax	#, tmp278
	call	_ZNSaIcED1Ev@PLT	#
	mov	rax, rbx	# D.116025, tmp276
	mov	rdi, rax	#, D.116025
	call	_Unwind_Resume@PLT	#
.L355:
	mov	rbx, rax	# tmp281,
	.loc 6 71 0 is_stmt 1
	lea	rax, -112[rbp]	# tmp279,
	mov	rdi, rax	#, tmp279
	call	_ZN7testing8internal12CodeLocationD1Ev	#
	jmp	.L330	#
.L354:
	mov	rbx, rax	# tmp280,
.L330:
	.loc 6 71 0 is_stmt 0 discriminator 3
	lea	rax, -64[rbp]	# tmp284,
	mov	rdi, rax	#, tmp284
	call	_ZNSt7__cxx1112basic_stringIcSt11char_traitsIcESaIcEED1Ev@PLT	#
	jmp	.L331	#
.L353:
	mov	rbx, rax	# tmp285,
.L331:
	.loc 6 71 0 discriminator 1
	lea	rax, -17[rbp]	# tmp287,
	mov	rdi, rax	#, tmp287
	call	_ZNSaIcED1Ev@PLT	#
	mov	rax, rbx	# D.116026, tmp285
	mov	rdi, rax	#, D.116026
	call	_Unwind_Resume@PLT	#
.LEHE125:
.L306:
	.loc 6 79 0 is_stmt 1
	lea	rsp, -16[rbp]	#,
	pop	rbx	#
	pop	r12	#
	pop	rbp	#
	.cfi_def_cfa 7, 8
	ret
	.cfi_endproc
.LFE5293:
	.section	.gcc_except_table
.LLSDA5293:
	.byte	0xff
	.byte	0xff
	.byte	0x1
	.uleb128 .LLSDACSE5293-.LLSDACSB5293
.LLSDACSB5293:
	.uleb128 .LEHB93-.LFB5293
	.uleb128 .LEHE93-.LEHB93
	.uleb128 0
	.uleb128 0
	.uleb128 .LEHB94-.LFB5293
	.uleb128 .LEHE94-.LEHB94
	.uleb128 .L332-.LFB5293
	.uleb128 0
	.uleb128 .LEHB95-.LFB5293
	.uleb128 .LEHE95-.LEHB95
	.uleb128 .L333-.LFB5293
	.uleb128 0
	.uleb128 .LEHB96-.LFB5293
	.uleb128 .LEHE96-.LEHB96
	.uleb128 .L334-.LFB5293
	.uleb128 0
	.uleb128 .LEHB97-.LFB5293
	.uleb128 .LEHE97-.LEHB97
	.uleb128 0
	.uleb128 0
	.uleb128 .LEHB98-.LFB5293
	.uleb128 .LEHE98-.LEHB98
	.uleb128 .L335-.LFB5293
	.uleb128 0
	.uleb128 .LEHB99-.LFB5293
	.uleb128 .LEHE99-.LEHB99
	.uleb128 .L336-.LFB5293
	.uleb128 0
	.uleb128 .LEHB100-.LFB5293
	.uleb128 .LEHE100-.LEHB100
	.uleb128 .L337-.LFB5293
	.uleb128 0
	.uleb128 .LEHB101-.LFB5293
	.uleb128 .LEHE101-.LEHB101
	.uleb128 0
	.uleb128 0
	.uleb128 .LEHB102-.LFB5293
	.uleb128 .LEHE102-.LEHB102
	.uleb128 .L338-.LFB5293
	.uleb128 0
	.uleb128 .LEHB103-.LFB5293
	.uleb128 .LEHE103-.LEHB103
	.uleb128 .L339-.LFB5293
	.uleb128 0
	.uleb128 .LEHB104-.LFB5293
	.uleb128 .LEHE104-.LEHB104
	.uleb128 .L340-.LFB5293
	.uleb128 0
	.uleb128 .LEHB105-.LFB5293
	.uleb128 .LEHE105-.LEHB105
	.uleb128 0
	.uleb128 0
	.uleb128 .LEHB106-.LFB5293
	.uleb128 .LEHE106-.LEHB106
	.uleb128 .L341-.LFB5293
	.uleb128 0
	.uleb128 .LEHB107-.LFB5293
	.uleb128 .LEHE107-.LEHB107
	.uleb128 .L342-.LFB5293
	.uleb128 0
	.uleb128 .LEHB108-.LFB5293
	.uleb128 .LEHE108-.LEHB108
	.uleb128 .L343-.LFB5293
	.uleb128 0
	.uleb128 .LEHB109-.LFB5293
	.uleb128 .LEHE109-.LEHB109
	.uleb128 0
	.uleb128 0
	.uleb128 .LEHB110-.LFB5293
	.uleb128 .LEHE110-.LEHB110
	.uleb128 .L344-.LFB5293
	.uleb128 0
	.uleb128 .LEHB111-.LFB5293
	.uleb128 .LEHE111-.LEHB111
	.uleb128 .L345-.LFB5293
	.uleb128 0
	.uleb128 .LEHB112-.LFB5293
	.uleb128 .LEHE112-.LEHB112
	.uleb128 .L346-.LFB5293
	.uleb128 0
	.uleb128 .LEHB113-.LFB5293
	.uleb128 .LEHE113-.LEHB113
	.uleb128 0
	.uleb128 0
	.uleb128 .LEHB114-.LFB5293
	.uleb128 .LEHE114-.LEHB114
	.uleb128 .L347-.LFB5293
	.uleb128 0
	.uleb128 .LEHB115-.LFB5293
	.uleb128 .LEHE115-.LEHB115
	.uleb128 .L348-.LFB5293
	.uleb128 0
	.uleb128 .LEHB116-.LFB5293
	.uleb128 .LEHE116-.LEHB116
	.uleb128 .L349-.LFB5293
	.uleb128 0
	.uleb128 .LEHB117-.LFB5293
	.uleb128 .LEHE117-.LEHB117
	.uleb128 0
	.uleb128 0
	.uleb128 .LEHB118-.LFB5293
	.uleb128 .LEHE118-.LEHB118
	.uleb128 .L350-.LFB5293
	.uleb128 0
	.uleb128 .LEHB119-.LFB5293
	.uleb128 .LEHE119-.LEHB119
	.uleb128 .L351-.LFB5293
	.uleb128 0
	.uleb128 .LEHB120-.LFB5293
	.uleb128 .LEHE120-.LEHB120
	.uleb128 .L352-.LFB5293
	.uleb128 0
	.uleb128 .LEHB121-.LFB5293
	.uleb128 .LEHE121-.LEHB121
	.uleb128 0
	.uleb128 0
	.uleb128 .LEHB122-.LFB5293
	.uleb128 .LEHE122-.LEHB122
	.uleb128 .L353-.LFB5293
	.uleb128 0
	.uleb128 .LEHB123-.LFB5293
	.uleb128 .LEHE123-.LEHB123
	.uleb128 .L354-.LFB5293
	.uleb128 0
	.uleb128 .LEHB124-.LFB5293
	.uleb128 .LEHE124-.LEHB124
	.uleb128 .L355-.LFB5293
	.uleb128 0
	.uleb128 .LEHB125-.LFB5293
	.uleb128 .LEHE125-.LEHB125
	.uleb128 0
	.uleb128 0
.LLSDACSE5293:
	.text
	.size	_Z41__static_initialization_and_destruction_0ii, .-_Z41__static_initialization_and_destruction_0ii
	.section	.text._ZN7testing8internal15TestFactoryImplI37BinarySearch_test_different_type_TestE10CreateTestEv,"axG",@progbits,_ZN7testing8internal15TestFactoryImplI37BinarySearch_test_different_type_TestE10CreateTestEv,comdat
	.align 2
	.weak	_ZN7testing8internal15TestFactoryImplI37BinarySearch_test_different_type_TestE10CreateTestEv
	.type	_ZN7testing8internal15TestFactoryImplI37BinarySearch_test_different_type_TestE10CreateTestEv, @function
_ZN7testing8internal15TestFactoryImplI37BinarySearch_test_different_type_TestE10CreateTestEv:
.LFB5300:
	.loc 3 506 0
	.cfi_startproc
	.cfi_personality 0x9b,DW.ref.__gxx_personality_v0
	.cfi_lsda 0x1b,.LLSDA5300
	push	rbp	#
	.cfi_def_cfa_offset 16
	.cfi_offset 6, -16
	mov	rbp, rsp	#,
	.cfi_def_cfa_register 6
	push	r12	#
	push	rbx	#
	sub	rsp, 16	#,
	.cfi_offset 12, -24
	.cfi_offset 3, -32
	mov	QWORD PTR -24[rbp], rdi	# this, this
	.loc 3 506 0
	mov	edi, 16	#,
.LEHB126:
	call	_Znwm@PLT	#
.LEHE126:
	mov	rbx, rax	# _3, tmp91
	mov	rdi, rbx	#, _3
.LEHB127:
	call	_ZN37BinarySearch_test_different_type_TestC1Ev	#
.LEHE127:
	.loc 3 506 0 is_stmt 0 discriminator 2
	mov	rax, rbx	# _6, _3
	jmp	.L360	#
.L359:
	mov	r12, rax	# tmp93,
	.loc 3 506 0
	mov	esi, 16	#,
	mov	rdi, rbx	#, _3
	call	_ZdlPvm@PLT	#
	mov	rax, r12	# D.116036, tmp93
	mov	rdi, rax	#, D.116036
.LEHB128:
	call	_Unwind_Resume@PLT	#
.LEHE128:
.L360:
	add	rsp, 16	#,
	pop	rbx	#
	pop	r12	#
	pop	rbp	#
	.cfi_def_cfa 7, 8
	ret
	.cfi_endproc
.LFE5300:
	.section	.gcc_except_table
.LLSDA5300:
	.byte	0xff
	.byte	0xff
	.byte	0x1
	.uleb128 .LLSDACSE5300-.LLSDACSB5300
.LLSDACSB5300:
	.uleb128 .LEHB126-.LFB5300
	.uleb128 .LEHE126-.LEHB126
	.uleb128 0
	.uleb128 0
	.uleb128 .LEHB127-.LFB5300
	.uleb128 .LEHE127-.LEHB127
	.uleb128 .L359-.LFB5300
	.uleb128 0
	.uleb128 .LEHB128-.LFB5300
	.uleb128 .LEHE128-.LEHB128
	.uleb128 0
	.uleb128 0
.LLSDACSE5300:
	.section	.text._ZN7testing8internal15TestFactoryImplI37BinarySearch_test_different_type_TestE10CreateTestEv,"axG",@progbits,_ZN7testing8internal15TestFactoryImplI37BinarySearch_test_different_type_TestE10CreateTestEv,comdat
	.size	_ZN7testing8internal15TestFactoryImplI37BinarySearch_test_different_type_TestE10CreateTestEv, .-_ZN7testing8internal15TestFactoryImplI37BinarySearch_test_different_type_TestE10CreateTestEv
	.section	.text._ZN7testing8internal15TestFactoryImplI32BinarySearch_test_not_exist_TestE10CreateTestEv,"axG",@progbits,_ZN7testing8internal15TestFactoryImplI32BinarySearch_test_not_exist_TestE10CreateTestEv,comdat
	.align 2
	.weak	_ZN7testing8internal15TestFactoryImplI32BinarySearch_test_not_exist_TestE10CreateTestEv
	.type	_ZN7testing8internal15TestFactoryImplI32BinarySearch_test_not_exist_TestE10CreateTestEv, @function
_ZN7testing8internal15TestFactoryImplI32BinarySearch_test_not_exist_TestE10CreateTestEv:
.LFB5301:
	.loc 3 506 0 is_stmt 1
	.cfi_startproc
	.cfi_personality 0x9b,DW.ref.__gxx_personality_v0
	.cfi_lsda 0x1b,.LLSDA5301
	push	rbp	#
	.cfi_def_cfa_offset 16
	.cfi_offset 6, -16
	mov	rbp, rsp	#,
	.cfi_def_cfa_register 6
	push	r12	#
	push	rbx	#
	sub	rsp, 16	#,
	.cfi_offset 12, -24
	.cfi_offset 3, -32
	mov	QWORD PTR -24[rbp], rdi	# this, this
	.loc 3 506 0
	mov	edi, 16	#,
.LEHB129:
	call	_Znwm@PLT	#
.LEHE129:
	mov	rbx, rax	# _3, tmp91
	mov	rdi, rbx	#, _3
.LEHB130:
	call	_ZN32BinarySearch_test_not_exist_TestC1Ev	#
.LEHE130:
	.loc 3 506 0 is_stmt 0 discriminator 2
	mov	rax, rbx	# _6, _3
	jmp	.L365	#
.L364:
	mov	r12, rax	# tmp93,
	.loc 3 506 0
	mov	esi, 16	#,
	mov	rdi, rbx	#, _3
	call	_ZdlPvm@PLT	#
	mov	rax, r12	# D.116037, tmp93
	mov	rdi, rax	#, D.116037
.LEHB131:
	call	_Unwind_Resume@PLT	#
.LEHE131:
.L365:
	add	rsp, 16	#,
	pop	rbx	#
	pop	r12	#
	pop	rbp	#
	.cfi_def_cfa 7, 8
	ret
	.cfi_endproc
.LFE5301:
	.section	.gcc_except_table
.LLSDA5301:
	.byte	0xff
	.byte	0xff
	.byte	0x1
	.uleb128 .LLSDACSE5301-.LLSDACSB5301
.LLSDACSB5301:
	.uleb128 .LEHB129-.LFB5301
	.uleb128 .LEHE129-.LEHB129
	.uleb128 0
	.uleb128 0
	.uleb128 .LEHB130-.LFB5301
	.uleb128 .LEHE130-.LEHB130
	.uleb128 .L364-.LFB5301
	.uleb128 0
	.uleb128 .LEHB131-.LFB5301
	.uleb128 .LEHE131-.LEHB131
	.uleb128 0
	.uleb128 0
.LLSDACSE5301:
	.section	.text._ZN7testing8internal15TestFactoryImplI32BinarySearch_test_not_exist_TestE10CreateTestEv,"axG",@progbits,_ZN7testing8internal15TestFactoryImplI32BinarySearch_test_not_exist_TestE10CreateTestEv,comdat
	.size	_ZN7testing8internal15TestFactoryImplI32BinarySearch_test_not_exist_TestE10CreateTestEv, .-_ZN7testing8internal15TestFactoryImplI32BinarySearch_test_not_exist_TestE10CreateTestEv
	.section	.text._ZN7testing8internal15TestFactoryImplI33BinarySearch_test_mixed_even_TestE10CreateTestEv,"axG",@progbits,_ZN7testing8internal15TestFactoryImplI33BinarySearch_test_mixed_even_TestE10CreateTestEv,comdat
	.align 2
	.weak	_ZN7testing8internal15TestFactoryImplI33BinarySearch_test_mixed_even_TestE10CreateTestEv
	.type	_ZN7testing8internal15TestFactoryImplI33BinarySearch_test_mixed_even_TestE10CreateTestEv, @function
_ZN7testing8internal15TestFactoryImplI33BinarySearch_test_mixed_even_TestE10CreateTestEv:
.LFB5302:
	.loc 3 506 0 is_stmt 1
	.cfi_startproc
	.cfi_personality 0x9b,DW.ref.__gxx_personality_v0
	.cfi_lsda 0x1b,.LLSDA5302
	push	rbp	#
	.cfi_def_cfa_offset 16
	.cfi_offset 6, -16
	mov	rbp, rsp	#,
	.cfi_def_cfa_register 6
	push	r12	#
	push	rbx	#
	sub	rsp, 16	#,
	.cfi_offset 12, -24
	.cfi_offset 3, -32
	mov	QWORD PTR -24[rbp], rdi	# this, this
	.loc 3 506 0
	mov	edi, 16	#,
.LEHB132:
	call	_Znwm@PLT	#
.LEHE132:
	mov	rbx, rax	# _3, tmp91
	mov	rdi, rbx	#, _3
.LEHB133:
	call	_ZN33BinarySearch_test_mixed_even_TestC1Ev	#
.LEHE133:
	.loc 3 506 0 is_stmt 0 discriminator 2
	mov	rax, rbx	# _6, _3
	jmp	.L370	#
.L369:
	mov	r12, rax	# tmp93,
	.loc 3 506 0
	mov	esi, 16	#,
	mov	rdi, rbx	#, _3
	call	_ZdlPvm@PLT	#
	mov	rax, r12	# D.116038, tmp93
	mov	rdi, rax	#, D.116038
.LEHB134:
	call	_Unwind_Resume@PLT	#
.LEHE134:
.L370:
	add	rsp, 16	#,
	pop	rbx	#
	pop	r12	#
	pop	rbp	#
	.cfi_def_cfa 7, 8
	ret
	.cfi_endproc
.LFE5302:
	.section	.gcc_except_table
.LLSDA5302:
	.byte	0xff
	.byte	0xff
	.byte	0x1
	.uleb128 .LLSDACSE5302-.LLSDACSB5302
.LLSDACSB5302:
	.uleb128 .LEHB132-.LFB5302
	.uleb128 .LEHE132-.LEHB132
	.uleb128 0
	.uleb128 0
	.uleb128 .LEHB133-.LFB5302
	.uleb128 .LEHE133-.LEHB133
	.uleb128 .L369-.LFB5302
	.uleb128 0
	.uleb128 .LEHB134-.LFB5302
	.uleb128 .LEHE134-.LEHB134
	.uleb128 0
