	.file	"main.cpp"
	.intel_syntax noprefix
	.text
.Ltext0:
	.section	.rodata._ZNK19SearchValueNotFound4whatEv.str1.1,"aMS",@progbits,1
.LC0:
	.string	"Empty queue"
	.section	.text._ZNK19SearchValueNotFound4whatEv,"axG",@progbits,_ZNK19SearchValueNotFound4whatEv,comdat
	.align 2
	.p2align 4,,15
	.weak	_ZNK19SearchValueNotFound4whatEv
	.type	_ZNK19SearchValueNotFound4whatEv, @function
_ZNK19SearchValueNotFound4whatEv:
.LFB984:
	.file 1 "binary_search.hpp"
	.loc 1 14 0
	.cfi_startproc
.LVL0:
	.loc 1 17 0
	lea	rax, .LC0[rip]
	ret
	.cfi_endproc
.LFE984:
	.size	_ZNK19SearchValueNotFound4whatEv, .-_ZNK19SearchValueNotFound4whatEv
	.section	.text._ZN19SearchValueNotFoundD2Ev,"axG",@progbits,_ZN19SearchValueNotFoundD5Ev,comdat
	.align 2
	.p2align 4,,15
	.weak	_ZN19SearchValueNotFoundD2Ev
	.type	_ZN19SearchValueNotFoundD2Ev, @function
_ZN19SearchValueNotFoundD2Ev:
.LFB1407:
	.loc 1 6 0
	.cfi_startproc
.LVL1:
.LBB279:
	.loc 1 6 0
	lea	rax, _ZTV19SearchValueNotFound[rip+16]
	mov	QWORD PTR [rdi], rax
	jmp	_ZNSt13runtime_errorD2Ev@PLT
.LVL2:
.LBE279:
	.cfi_endproc
.LFE1407:
	.size	_ZN19SearchValueNotFoundD2Ev, .-_ZN19SearchValueNotFoundD2Ev
	.weak	_ZN19SearchValueNotFoundD1Ev
	.set	_ZN19SearchValueNotFoundD1Ev,_ZN19SearchValueNotFoundD2Ev
	.section	.text._ZN19SearchValueNotFoundD0Ev,"axG",@progbits,_ZN19SearchValueNotFoundD5Ev,comdat
	.align 2
	.p2align 4,,15
	.weak	_ZN19SearchValueNotFoundD0Ev
	.type	_ZN19SearchValueNotFoundD0Ev, @function
_ZN19SearchValueNotFoundD0Ev:
.LFB1409:
	.loc 1 6 0
	.cfi_startproc
.LVL3:
.LBB280:
.LBB281:
	lea	rax, _ZTV19SearchValueNotFound[rip+16]
.LBE281:
.LBE280:
	push	rbx
	.cfi_def_cfa_offset 16
	.cfi_offset 3, -16
	.loc 1 6 0
	mov	rbx, rdi
.LBB283:
.LBB282:
	mov	QWORD PTR [rdi], rax
	call	_ZNSt13runtime_errorD2Ev@PLT
.LVL4:
.LBE282:
.LBE283:
	mov	rdi, rbx
	mov	esi, 16
	pop	rbx
	.cfi_def_cfa_offset 8
.LVL5:
	jmp	_ZdlPvm@PLT
.LVL6:
	.cfi_endproc
.LFE1409:
	.size	_ZN19SearchValueNotFoundD0Ev, .-_ZN19SearchValueNotFoundD0Ev
	.section	.text._ZN19SearchValueNotFoundC2Ev,"axG",@progbits,_ZN19SearchValueNotFoundC5Ev,comdat
	.align 2
	.p2align 4,,15
	.weak	_ZN19SearchValueNotFoundC2Ev
	.type	_ZN19SearchValueNotFoundC2Ev, @function
_ZN19SearchValueNotFoundC2Ev:
.LFB979:
	.loc 1 9 0
	.cfi_startproc
	.cfi_personality 0x9b,DW.ref.__gxx_personality_v0
	.cfi_lsda 0x1b,.LLSDA979
.LVL7:
	push	rbp
	.cfi_def_cfa_offset 16
	.cfi_offset 6, -16
	push	rbx
	.cfi_def_cfa_offset 24
	.cfi_offset 3, -24
	mov	rbp, rdi
	sub	rsp, 40
	.cfi_def_cfa_offset 64
.LVL8:
.LBB359:
.LBB360:
.LBB361:
.LBB362:
.LBB363:
.LBB364:
	.file 2 "/usr/include/c++/6/bits/basic_string.h"
	.loc 2 110 0
	lea	rax, 16[rsp]
.LBE364:
.LBE363:
.LBE362:
.LBE361:
.LBE360:
.LBB383:
.LBB384:
	.loc 1 12 0
	mov	rsi, rsp
.LBE384:
.LBE383:
.LBB387:
.LBB382:
.LBB369:
.LBB367:
.LBB365:
	.loc 2 110 0
	mov	rbx, rsp
.LBE365:
.LBE367:
.LBE369:
.LBB370:
.LBB371:
.LBB372:
.LBB373:
.LBB374:
.LBB375:
.LBB376:
.LBB377:
.LBB378:
	.loc 2 132 0
	mov	QWORD PTR 8[rsp], 0
.LBE378:
.LBE377:
.LBB379:
.LBB380:
	.file 3 "/usr/include/c++/6/bits/char_traits.h"
	.loc 3 243 0
	mov	BYTE PTR 16[rsp], 0
.LBE380:
.LBE379:
.LBE376:
.LBE375:
.LBE374:
.LBE373:
.LBE372:
.LBE371:
.LBE370:
.LBB381:
.LBB368:
.LBB366:
	.loc 2 110 0
	mov	QWORD PTR [rsp], rax
.LVL9:
.LEHB0:
.LBE366:
.LBE368:
.LBE381:
.LBE382:
.LBE387:
.LBB388:
.LBB385:
	.loc 1 12 0
	call	_ZNSt13runtime_errorC2ERKNSt7__cxx1112basic_stringIcSt11char_traitsIcESaIcEEE@PLT
.LVL10:
.LEHE0:
	mov	rdi, QWORD PTR [rsp]
	lea	rax, _ZTV19SearchValueNotFound[rip+16]
.LBE385:
.LBE388:
.LBB389:
.LBB390:
.LBB391:
	.loc 2 180 0
	add	rbx, 16
.LBE391:
.LBE390:
.LBE389:
.LBB398:
.LBB386:
	.loc 1 12 0
	mov	QWORD PTR 0[rbp], rax
.LVL11:
.LBE386:
.LBE398:
.LBB399:
.LBB397:
.LBB396:
	.loc 2 180 0
	cmp	rdi, rbx
	je	.L5
.LVL12:
.LBB392:
.LBB393:
.LBB394:
.LBB395:
	.file 4 "/usr/include/c++/6/ext/new_allocator.h"
	.loc 4 110 0
	call	_ZdlPv@PLT
.LVL13:
.L5:
.LBE395:
.LBE394:
.LBE393:
.LBE392:
.LBE396:
.LBE397:
.LBE399:
.LBE359:
	.loc 1 9 0
	add	rsp, 40
	.cfi_remember_state
	.cfi_def_cfa_offset 24
.LVL14:
	pop	rbx
	.cfi_def_cfa_offset 16
.LVL15:
	pop	rbp
	.cfi_def_cfa_offset 8
.LVL16:
	ret
.LVL17:
.L9:
	.cfi_restore_state
	mov	rdi, QWORD PTR [rsp]
.LBB407:
.LBB400:
.LBB401:
.LBB402:
	.loc 2 180 0
	add	rbx, 16
.LVL18:
	mov	rbp, rax
.LVL19:
	cmp	rdi, rbx
	je	.L8
.LVL20:
.LBB403:
.LBB404:
.LBB405:
.LBB406:
	.loc 4 110 0
	call	_ZdlPv@PLT
.LVL21:
.L8:
	mov	rdi, rbp
.LEHB1:
	call	_Unwind_Resume@PLT
.LVL22:
.LEHE1:
.LBE406:
.LBE405:
.LBE404:
.LBE403:
.LBE402:
.LBE401:
.LBE400:
.LBE407:
	.cfi_endproc
.LFE979:
	.globl	__gxx_personality_v0
	.section	.gcc_except_table._ZN19SearchValueNotFoundC2Ev,"aG",@progbits,_ZN19SearchValueNotFoundC5Ev,comdat
.LLSDA979:
	.byte	0xff
	.byte	0xff
	.byte	0x1
	.uleb128 .LLSDACSE979-.LLSDACSB979
.LLSDACSB979:
	.uleb128 .LEHB0-.LFB979
	.uleb128 .LEHE0-.LEHB0
	.uleb128 .L9-.LFB979
	.uleb128 0
	.uleb128 .LEHB1-.LFB979
	.uleb128 .LEHE1-.LEHB1
	.uleb128 0
	.uleb128 0
.LLSDACSE979:
	.section	.text._ZN19SearchValueNotFoundC2Ev,"axG",@progbits,_ZN19SearchValueNotFoundC5Ev,comdat
	.size	_ZN19SearchValueNotFoundC2Ev, .-_ZN19SearchValueNotFoundC2Ev
	.weak	_ZN19SearchValueNotFoundC1Ev
	.set	_ZN19SearchValueNotFoundC1Ev,_ZN19SearchValueNotFoundC2Ev
	.section	.text.startup,"ax",@progbits
	.p2align 4,,15
	.globl	main
	.type	main, @function
main:
.LFB987:
	.file 5 "main.cpp"
	.loc 5 4 0
	.cfi_startproc
	.cfi_personality 0x9b,DW.ref.__gxx_personality_v0
	.cfi_lsda 0x1b,.LLSDA987
	push	rbp
	.cfi_def_cfa_offset 16
	.cfi_offset 6, -16
	push	rbx
	.cfi_def_cfa_offset 24
	.cfi_offset 3, -24
	.loc 5 5 0
	mov	edi, 2
	xor	ecx, ecx
	.loc 5 4 0
	sub	rsp, 24
	.cfi_def_cfa_offset 48
	.loc 5 5 0
	mov	DWORD PTR 4[rsp], 1
	mov	DWORD PTR 8[rsp], 2
	mov	DWORD PTR 12[rsp], 3
.LVL23:
.L19:
.LBB412:
.LBB413:
.LBB414:
	.file 6 "binary_search.cpp"
	.loc 6 12 0
	lea	rdx, [rcx+rdi]
	shr	rdx
.LVL24:
	.loc 6 15 0
	mov	esi, DWORD PTR 4[rsp+rdx*4]
	.loc 6 16 0
	cmp	esi, 1
	jg	.L25
	jmp	.L28
	.p2align 4,,10
	.p2align 3
.L26:
	.loc 6 12 0
	lea	rax, [rdx+rcx]
	shr	rax
.LVL25:
	.loc 6 15 0
	mov	esi, DWORD PTR 4[rsp+rax*4]
	.loc 6 16 0
	cmp	esi, 1
	jle	.L14
	.loc 6 12 0
	mov	rdx, rax
.LVL26:
.L25:
	.loc 6 4 0
	cmp	rdx, rcx
	jne	.L26
.LVL27:
.L17:
	.loc 6 6 0
	cmp	esi, 2
	jne	.L29
.LBE414:
.LBE413:
.LBE412:
	.loc 5 7 0
	add	rsp, 24
	.cfi_remember_state
	.cfi_def_cfa_offset 24
	xor	eax, eax
	pop	rbx
	.cfi_def_cfa_offset 16
	pop	rbp
	.cfi_def_cfa_offset 8
	ret
.LVL28:
.L28:
	.cfi_restore_state
.LBB417:
.LBB416:
.LBB415:
	.loc 6 12 0
	mov	rax, rdx
	.loc 6 16 0
	mov	rdx, rdi
.LVL29:
	.p2align 4,,10
	.p2align 3
.L14:
	.loc 6 17 0
	lea	rcx, 1[rax]
	.loc 6 4 0
	cmp	rcx, rdx
	je	.L30
	mov	rdi, rdx
	jmp	.L19
.L30:
	mov	esi, DWORD PTR 4[rsp+rdx*4]
	jmp	.L17
.LVL30:
.L29:
	.loc 6 7 0
	mov	edi, 16
	call	__cxa_allocate_exception@PLT
.LVL31:
	mov	rdi, rax
	mov	rbx, rax
.LEHB2:
	call	_ZN19SearchValueNotFoundC1Ev
.LVL32:
.LEHE2:
	lea	rdx, _ZN19SearchValueNotFoundD1Ev[rip]
	lea	rsi, _ZTI19SearchValueNotFound[rip]
	mov	rdi, rbx
.LEHB3:
	call	__cxa_throw@PLT
.LVL33:
.L23:
	mov	rbp, rax
	mov	rdi, rbx
	call	__cxa_free_exception@PLT
.LVL34:
	mov	rdi, rbp
	call	_Unwind_Resume@PLT
.LVL35:
.LEHE3:
.LBE415:
.LBE416:
.LBE417:
	.cfi_endproc
.LFE987:
	.section	.gcc_except_table,"a",@progbits
.LLSDA987:
	.byte	0xff
	.byte	0xff
	.byte	0x1
	.uleb128 .LLSDACSE987-.LLSDACSB987
.LLSDACSB987:
	.uleb128 .LEHB2-.LFB987
	.uleb128 .LEHE2-.LEHB2
	.uleb128 .L23-.LFB987
	.uleb128 0
	.uleb128 .LEHB3-.LFB987
	.uleb128 .LEHE3-.LEHB3
	.uleb128 0
	.uleb128 0
.LLSDACSE987:
	.section	.text.startup
	.size	main, .-main
	.weak	_ZTS19SearchValueNotFound
	.section	.rodata._ZTS19SearchValueNotFound,"aG",@progbits,_ZTS19SearchValueNotFound,comdat
	.align 16
	.type	_ZTS19SearchValueNotFound, @object
	.size	_ZTS19SearchValueNotFound, 22
_ZTS19SearchValueNotFound:
	.string	"19SearchValueNotFound"
	.weak	_ZTI19SearchValueNotFound
	.section	.data.rel.ro._ZTI19SearchValueNotFound,"awG",@progbits,_ZTI19SearchValueNotFound,comdat
	.align 8
	.type	_ZTI19SearchValueNotFound, @object
	.size	_ZTI19SearchValueNotFound, 24
_ZTI19SearchValueNotFound:
	.quad	_ZTVN10__cxxabiv120__si_class_type_infoE+16
	.quad	_ZTS19SearchValueNotFound
	.quad	_ZTISt13runtime_error
	.weak	_ZTV19SearchValueNotFound
	.section	.data.rel.ro.local._ZTV19SearchValueNotFound,"awG",@progbits,_ZTV19SearchValueNotFound,comdat
	.align 8
	.type	_ZTV19SearchValueNotFound, @object
	.size	_ZTV19SearchValueNotFound, 40
_ZTV19SearchValueNotFound:
	.quad	0
	.quad	_ZTI19SearchValueNotFound
	.quad	_ZN19SearchValueNotFoundD1Ev
	.quad	_ZN19SearchValueNotFoundD0Ev
	.quad	_ZNK19SearchValueNotFound4whatEv
	.text
.Letext0:
	.file 7 "/usr/include/c++/6/bits/basic_string.tcc"
	.file 8 "/usr/include/c++/6/bits/stringfwd.h"
	.file 9 "/usr/include/x86_64-linux-gnu/c++/6/bits/c++config.h"
	.file 10 "/usr/include/c++/6/bits/exception_ptr.h"
	.file 11 "/usr/include/c++/6/type_traits"
	.file 12 "/usr/include/c++/6/bits/stl_pair.h"
	.file 13 "/usr/include/c++/6/bits/cpp_type_traits.h"
	.file 14 "/usr/include/c++/6/bits/stl_iterator_base_types.h"
	.file 15 "/usr/include/c++/6/debug/debug.h"
	.file 16 "/usr/include/c++/6/cwchar"
	.file 17 "/usr/include/c++/6/cstdint"
	.file 18 "/usr/include/c++/6/new"
	.file 19 "/usr/include/c++/6/bits/allocator.h"
	.file 20 "/usr/include/c++/6/clocale"
	.file 21 "/usr/include/c++/6/cstdlib"
	.file 22 "/usr/include/c++/6/cstdio"
	.file 23 "/usr/include/c++/6/bits/alloc_traits.h"
	.file 24 "/usr/include/c++/6/initializer_list"
	.file 25 "/usr/include/c++/6/cstddef"
	.file 26 "/usr/include/c++/6/bits/ptr_traits.h"
	.file 27 "/usr/include/c++/6/bits/stl_iterator_base_funcs.h"
	.file 28 "/usr/include/c++/6/bits/move.h"
	.file 29 "/usr/include/c++/6/bits/predefined_ops.h"
	.file 30 "/usr/include/c++/6/ext/numeric_traits.h"
	.file 31 "/usr/include/c++/6/ext/alloc_traits.h"
	.file 32 "/usr/include/c++/6/bits/stl_iterator.h"
	.file 33 "/usr/include/c++/6/ext/type_traits.h"
	.file 34 "/usr/include/stdio.h"
	.file 35 "/usr/include/libio.h"
	.file 36 "<built-in>"
	.file 37 "/usr/lib/gcc/x86_64-linux-gnu/6/include/stddef.h"
	.file 38 "/usr/include/wchar.h"
	.file 39 "/usr/include/time.h"
	.file 40 "/usr/include/stdint.h"
	.file 41 "/usr/include/locale.h"
	.file 42 "/usr/include/x86_64-linux-gnu/bits/types.h"
	.file 43 "/usr/include/stdlib.h"
	.file 44 "/usr/include/x86_64-linux-gnu/bits/stdlib-float.h"
	.file 45 "/usr/include/x86_64-linux-gnu/bits/stdlib-bsearch.h"
	.file 46 "/usr/include/_G_config.h"
	.file 47 "/usr/include/x86_64-linux-gnu/bits/sys_errlist.h"
	.file 48 "/usr/include/x86_64-linux-gnu/bits/stdio.h"
	.file 49 "/usr/include/errno.h"
	.section	.data.DW.ref.__gxx_personality_v0,"awG",@progbits,DW.ref.__gxx_personality_v0,comdat
	.align 8
	.type	DW.ref.__gxx_personality_v0, @object
	.size	DW.ref.__gxx_personality_v0, 8
DW.ref.__gxx_personality_v0:
	.quad	__gxx_personality_v0
	.ident	"GCC: (Debian 6.3.0-18) 6.3.0 20170516"
	.section	.note.GNU-stack,"",@progbits
